

Microchip MPLAB XC8 Assembler V2.30 build 20200825195618 
                                                                                               Wed Oct 14 13:53:32 2020

Microchip MPLAB XC8 C Compiler v2.30 (Free license) build 20200825195618 Og1 
     1                           	processor	18F47Q10
     2                           	fnconf	rparam,??,?,0
     3                           	pagewidth 120
     4                           	opt	flic
     5                           	psect	nvCOMRAM,global,class=COMRAM,space=1,delta=1,lowdata,noexec
     6                           	psect	cinit,global,reloc=2,class=CODE,delta=1
     7                           	psect	bssCOMRAM,global,class=COMRAM,space=1,delta=1,lowdata,noexec
     8                           	psect	cstackCOMRAM,global,class=COMRAM,space=1,delta=1,lowdata,noexec
     9                           	psect	text0,global,reloc=2,class=CODE,delta=1
    10                           	psect	text1,global,reloc=2,class=CODE,delta=1
    11                           	psect	text2,global,reloc=2,class=CODE,delta=1
    12                           	psect	text3,global,reloc=2,class=CODE,delta=1
    13                           	psect	text4,global,reloc=2,class=CODE,delta=1
    14                           	psect	text5,global,reloc=2,class=CODE,delta=1
    15                           	psect	text6,global,reloc=2,class=CODE,delta=1
    16                           	psect	text7,global,reloc=2,class=CODE,delta=1
    17                           	psect	text8,global,reloc=2,class=CODE,delta=1
    18                           	psect	text9,global,reloc=2,class=CODE,delta=1
    19                           	psect	text10,global,reloc=2,class=CODE,delta=1
    20                           	psect	text11,global,reloc=2,class=CODE,delta=1
    21                           	psect	text12,global,reloc=2,class=CODE,delta=1
    22                           	psect	text13,global,reloc=2,class=CODE,delta=1
    23                           	psect	text14,global,reloc=2,class=CODE,delta=1
    24                           	psect	text15,global,reloc=2,class=CODE,delta=1
    25                           	psect	text16,global,reloc=2,class=CODE,delta=1
    26                           	psect	text17,global,reloc=2,class=CODE,delta=1
    27                           	psect	text18,global,reloc=2,class=CODE,delta=1
    28                           	psect	text19,global,reloc=2,class=CODE,delta=1
    29                           	psect	text20,global,reloc=2,class=CODE,delta=1
    30                           	psect	text21,global,reloc=2,class=CODE,delta=1
    31                           	psect	text22,global,reloc=2,class=CODE,delta=1
    32                           	psect	text23,global,reloc=2,class=CODE,delta=1
    33                           	psect	text24,global,reloc=2,class=CODE,delta=1
    34                           	psect	text25,global,reloc=2,class=CODE,delta=1
    35                           	psect	text26,global,reloc=2,class=CODE,delta=1
    36                           	psect	text27,global,reloc=2,class=CODE,delta=1
    37                           	psect	text28,global,reloc=2,class=CODE,delta=1
    38                           	psect	text29,global,reloc=2,class=CODE,delta=1
    39                           	psect	text30,global,reloc=2,class=CODE,delta=1
    40                           	psect	text31,global,reloc=2,class=CODE,delta=1
    41                           	psect	text32,global,reloc=2,class=CODE,delta=1
    42                           	psect	text33,global,reloc=2,class=CODE,delta=1
    43                           	psect	text34,global,reloc=2,class=CODE,delta=1
    44                           	psect	intcode,global,reloc=2,class=CODE,delta=1
    45                           	psect	text36,global,reloc=2,class=CODE,delta=1
    46                           	psect	text37,global,reloc=2,class=CODE,delta=1
    47                           	psect	text38,global,reloc=2,class=CODE,delta=1
    48                           	psect	text39,global,reloc=2,class=CODE,delta=1
    49                           	psect	text40,global,reloc=2,class=CODE,delta=1
    50                           	psect	text41,global,reloc=2,class=CODE,delta=1
    51                           	psect	text42,global,reloc=2,class=CODE,delta=1
    52                           	psect	text43,global,reloc=2,class=CODE,delta=1
    53                           	psect	intsave_regs,global,class=BIGRAM,space=1,delta=1,noexec
    54                           	psect	text44,global,reloc=2,class=CODE,delta=1
    55                           	psect	rparam,global,class=COMRAM,space=1,delta=1,noexec
    56                           	psect	temp,global,ovrld,common,class=COMRAM,space=1,delta=1
    57                           	psect	idloc,global,abs,ovrld,class=IDLOC,space=5,delta=1,noexec
    58                           	psect	config,global,abs,ovrld,class=CONFIG,space=4,delta=1,noexec
    59  0000                     
    60                           ; Version 2.30
    61                           ; Generated 20/08/2020 GMT
    62                           ; 
    63                           ; Copyright © 2020, Microchip Technology Inc. and its subsidiaries ("Microchip")
    64                           ; All rights reserved.
    65                           ; 
    66                           ; This software is developed by Microchip Technology Inc. and its subsidiaries ("Microch
      +                          ip").
    67                           ; 
    68                           ; Redistribution and use in source and binary forms, with or without modification, are
    69                           ; permitted provided that the following conditions are met:
    70                           ; 
    71                           ;     1. Redistributions of source code must retain the above copyright notice, this lis
      +                          t of
    72                           ;        conditions and the following disclaimer.
    73                           ; 
    74                           ;     2. Redistributions in binary form must reproduce the above copyright notice, this 
      +                          list
    75                           ;        of conditions and the following disclaimer in the documentation and/or other
    76                           ;        materials provided with the distribution. Publication is not required when
    77                           ;        this file is used in an embedded application.
    78                           ; 
    79                           ;     3. Microchip's name may not be used to endorse or promote products derived from th
      +                          is
    80                           ;        software without specific prior written permission.
    81                           ; 
    82                           ; THIS SOFTWARE IS PROVIDED BY MICROCHIP "AS IS" AND ANY EXPRESS OR IMPLIED WARRANTIES,
    83                           ; INCLUDING, BUT NOT LIMITED TO, THE IMPLIED WARRANTIES OF MERCHANTABILITY AND FITNESS F
      +                          OR
    84                           ; PURPOSE ARE DISCLAIMED.  IN NO EVENT SHALL MICROCHIP BE LIABLE FOR ANY DIRECT, INDIREC
      +                          T,
    85                           ; INCIDENTAL, SPECIAL, EXEMPLARY, OR CONSEQUENTIAL DAMAGES (INCLUDING BUT NOT LIMITED TO
    86                           ; PROCUREMENT OF SUBSTITUTE GOODS OR SERVICES; LOSS OF USE, DATA OR PROFITS; OR BUSINESS
    87                           ; INTERRUPTION) HOWSOEVER CAUSED AND ON ANY THEORY OF LIABILITY, WHETHER IN CONTRACT, ST
      +                          RICT
    88                           ; LIABILITY, OR TORT (INCLUDING NEGLIGENCE OR OTHERWISE) ARISING IN ANY WAY OUT OF THE U
      +                          SE OF
    89                           ; THIS SOFTWARE, EVEN IF ADVISED OF THE POSSIBILITY OF SUCH DAMAGE.
    90                           ; 
    91                           ; 
    92                           ; Code-generator required, PIC18F47Q10 Definitions
    93                           ; 
    94                           ; SFR Addresses
    95  0000                     
    96                           	psect	nvCOMRAM
    97  000025                     __pnvCOMRAM:
    98                           	callstack 0
    99  000025                     _TMR4_InterruptHandler:
   100                           	callstack 0
   101  000025                     	ds	3
   102  000028                     _TMR0_InterruptHandler:
   103                           	callstack 0
   104  000028                     	ds	3
   105  0000                     _CLC3POLbits	set	3644
   106  0000                     _CLC2POLbits	set	3634
   107  0000                     _CLC1POLbits	set	3624
   108  0000                     _PMD5	set	3809
   109  0000                     _PMD4	set	3808
   110  0000                     _PMD3	set	3807
   111  0000                     _PMD2	set	3806
   112  0000                     _PMD1	set	3805
   113  0000                     _PMD0	set	3804
   114  0000                     _OSCTUNE	set	3800
   115  0000                     _OSCFRQ	set	3801
   116  0000                     _OSCEN	set	3799
   117  0000                     _OSCCON3	set	3797
   118  0000                     _OSCCON1	set	3795
   119  0000                     _CLC5CONbits	set	3663
   120  0000                     _CLC5CON	set	3663
   121  0000                     _CLC5GLS3	set	3672
   122  0000                     _CLC5GLS2	set	3671
   123  0000                     _CLC5GLS1	set	3670
   124  0000                     _CLC5GLS0	set	3669
   125  0000                     _CLC5SEL3	set	3668
   126  0000                     _CLC5SEL2	set	3667
   127  0000                     _CLC5SEL1	set	3666
   128  0000                     _CLC5SEL0	set	3665
   129  0000                     _CLC5POL	set	3664
   130  0000                     _CLC4CONbits	set	3653
   131  0000                     _CLC4CON	set	3653
   132  0000                     _CLC4GLS3	set	3662
   133  0000                     _CLC4GLS2	set	3661
   134  0000                     _CLC4GLS1	set	3660
   135  0000                     _CLC4GLS0	set	3659
   136  0000                     _CLC4SEL3	set	3658
   137  0000                     _CLC4SEL2	set	3657
   138  0000                     _CLC4SEL1	set	3656
   139  0000                     _CLC4SEL0	set	3655
   140  0000                     _CLC4POL	set	3654
   141  0000                     _CLC3CONbits	set	3643
   142  0000                     _CLC3CON	set	3643
   143  0000                     _CLC3GLS3	set	3652
   144  0000                     _CLC3GLS2	set	3651
   145  0000                     _CLC3GLS1	set	3650
   146  0000                     _CLC3GLS0	set	3649
   147  0000                     _CLC3SEL3	set	3648
   148  0000                     _CLC3SEL2	set	3647
   149  0000                     _CLC3SEL1	set	3646
   150  0000                     _CLC3SEL0	set	3645
   151  0000                     _CLC3POL	set	3644
   152  0000                     _CLC2CONbits	set	3633
   153  0000                     _CLC2CON	set	3633
   154  0000                     _CLC2GLS3	set	3642
   155  0000                     _CLC2GLS2	set	3641
   156  0000                     _CLC2GLS1	set	3640
   157  0000                     _CLC2GLS0	set	3639
   158  0000                     _CLC2SEL3	set	3638
   159  0000                     _CLC2SEL2	set	3637
   160  0000                     _CLC2SEL1	set	3636
   161  0000                     _CLC2SEL0	set	3635
   162  0000                     _CLC2POL	set	3634
   163  0000                     _CLC1CONbits	set	3623
   164  0000                     _CLC1CON	set	3623
   165  0000                     _CLC1GLS3	set	3632
   166  0000                     _CLC1GLS2	set	3631
   167  0000                     _CLC1GLS1	set	3630
   168  0000                     _CLC1GLS0	set	3629
   169  0000                     _CLC1SEL3	set	3628
   170  0000                     _CLC1SEL2	set	3627
   171  0000                     _CLC1SEL1	set	3626
   172  0000                     _CLC1SEL0	set	3625
   173  0000                     _CLC1POL	set	3624
   174  0000                     _PIR4bits	set	3785
   175  0000                     _PIE4bits	set	3777
   176  0000                     _PIR5bits	set	3786
   177  0000                     _PIE5bits	set	3778
   178  0000                     _PIR6bits	set	3787
   179  0000                     _PIE6bits	set	3779
   180  0000                     _PIR0bits	set	3781
   181  0000                     _PIE0bits	set	3773
   182  0000                     _T4INPPS	set	3751
   183  0000                     _RA3PPS	set	3813
   184  0000                     _CLCIN0PPS	set	3615
   185  0000                     _MDCARL	set	3919
   186  0000                     _MDCARH	set	3920
   187  0000                     _MDSRC	set	3918
   188  0000                     _MDCON1bits	set	3917
   189  0000                     _MDCON0bits	set	3916
   190  0000                     _INLVLE	set	3877
   191  0000                     _INLVLD	set	3869
   192  0000                     _INLVLC	set	3864
   193  0000                     _INLVLB	set	3856
   194  0000                     _INLVLA	set	3848
   195  0000                     _SLRCONE	set	3878
   196  0000                     _SLRCOND	set	3870
   197  0000                     _SLRCONC	set	3865
   198  0000                     _SLRCONB	set	3857
   199  0000                     _SLRCONA	set	3849
   200  0000                     _ODCOND	set	3871
   201  0000                     _ODCONC	set	3866
   202  0000                     _ODCONB	set	3858
   203  0000                     _ODCONA	set	3850
   204  0000                     _ODCONE	set	3879
   205  0000                     _WPUC	set	3867
   206  0000                     _WPUA	set	3851
   207  0000                     _WPUB	set	3859
   208  0000                     _WPUE	set	3880
   209  0000                     _WPUD	set	3872
   210  0000                     _ANSELA	set	3852
   211  0000                     _ANSELE	set	3881
   212  0000                     _ANSELB	set	3860
   213  0000                     _ANSELC	set	3868
   214  0000                     _ANSELD	set	3873
   215  0000                     _T0CON1bits	set	4053
   216  0000                     _LATEbits	set	3974
   217  0000                     _PWM4DCL	set	3999
   218  0000                     _PWM4DCH	set	4000
   219  0000                     _PWM4CON	set	4001
   220  0000                     _CCPTMRSbits	set	4013
   221  0000                     _PWM3DCL	set	4002
   222  0000                     _PWM3DCH	set	4003
   223  0000                     _PWM3CON	set	4004
   224  0000                     _PR4	set	4021
   225  0000                     _TMR4	set	4020
   226  0000                     _T4CONbits	set	4022
   227  0000                     _T4RSTbits	set	4025
   228  0000                     _T4HLTbits	set	4023
   229  0000                     _T4CON	set	4022
   230  0000                     _T4TMR	set	4020
   231  0000                     _T4PR	set	4021
   232  0000                     _T4RST	set	4025
   233  0000                     _T4HLT	set	4023
   234  0000                     _T4CLKCON	set	4024
   235  0000                     _T0CON0bits	set	4052
   236  0000                     _T0CON0	set	4052
   237  0000                     _TMR0L	set	4050
   238  0000                     _TMR0H	set	4051
   239  0000                     _T0CON1	set	4053
   240  0000                     _PR2	set	4027
   241  0000                     _TMR2	set	4026
   242  0000                     _T2CONbits	set	4028
   243  0000                     _T2RSTbits	set	4031
   244  0000                     _T2HLTbits	set	4029
   245  0000                     _T2CON	set	4028
   246  0000                     _T2TMR	set	4026
   247  0000                     _T2PR	set	4027
   248  0000                     _T2RST	set	4031
   249  0000                     _T2HLT	set	4029
   250  0000                     _T2CLKCON	set	4030
   251  0000                     _INTCONbits	set	4082
   252  0000                     _TRISD	set	3978
   253  0000                     _TRISC	set	3977
   254  0000                     _TRISB	set	3976
   255  0000                     _TRISA	set	3975
   256  0000                     _TRISE	set	3979
   257  0000                     _LATC	set	3972
   258  0000                     _LATB	set	3971
   259  0000                     _LATA	set	3970
   260  0000                     _LATD	set	3973
   261  0000                     _LATE	set	3974
   262                           
   263                           ; #config settings
   264                           
   265                           	psect	cinit
   266  0008CE                     __pcinit:
   267                           	callstack 0
   268  0008CE                     start_initialization:
   269                           	callstack 0
   270  0008CE                     __initialization:
   271                           	callstack 0
   272                           
   273                           ; Clear objects allocated to COMRAM (21 bytes)
   274  0008CE  EE00  F001         	lfsr	0,__pbssCOMRAM
   275  0008D2  0E15               	movlw	21
   276  0008D4                     clear_0:
   277  0008D4  6AEE               	clrf	postinc0,c
   278  0008D6  06E8               	decf	wreg,f,c
   279  0008D8  E1FD               	bnz	clear_0
   280  0008DA                     end_of_initialization:
   281                           	callstack 0
   282  0008DA                     __end_of__initialization:
   283                           	callstack 0
   284  0008DA  902B               	bcf	int$flags,0,c	;clear compiler interrupt flag (level 1)
   285  0008DC  922B               	bcf	int$flags,1,c	;clear compiler interrupt flag (level 2)
   286  0008DE  0100               	movlb	0
   287  0008E0  EF15  F003         	goto	_main	;jump to C main() function
   288                           
   289                           	psect	bssCOMRAM
   290  000001                     __pbssCOMRAM:
   291                           	callstack 0
   292  000001                     SendIR_Frame@tempData:
   293                           	callstack 0
   294  000001                     	ds	4
   295  000005                     ApplicationTask@data:
   296                           	callstack 0
   297  000005                     	ds	4
   298  000009                     _event:
   299                           	callstack 0
   300  000009                     	ds	2
   301  00000B                     SendIR_Frame@bitCounter:
   302                           	callstack 0
   303  00000B                     	ds	1
   304  00000C                     SendIR_Frame@logicState:
   305                           	callstack 0
   306  00000C                     	ds	1
   307  00000D                     PrepareNewCMD@sw1PressedIndex:
   308                           	callstack 0
   309  00000D                     	ds	1
   310  00000E                     ApplicationTask@rxAddress:
   311                           	callstack 0
   312  00000E                     	ds	1
   313  00000F                     ApplicationTask@command:
   314                           	callstack 0
   315  00000F                     	ds	1
   316  000010                     ApplicationTask@button:
   317                           	callstack 0
   318  000010                     	ds	1
   319  000011                     ApplicationTask@state:
   320                           	callstack 0
   321  000011                     	ds	1
   322  000012                     _clc5RisingEdgeFlag:
   323                           	callstack 0
   324  000012                     	ds	1
   325  000013                     _timer0overflowFlag:
   326                           	callstack 0
   327  000013                     	ds	1
   328  000014                     _clc1risingEdgeFlag:
   329                           	callstack 0
   330  000014                     	ds	1
   331  000015                     _clc1FirstRisingEdge:
   332                           	callstack 0
   333  000015                     	ds	1
   334                           
   335                           	psect	cstackCOMRAM
   336  000016                     __pcstackCOMRAM:
   337                           	callstack 0
   338  000016                     ??_INTERRUPT_InterruptManager:
   339  000016                     
   340                           ; 1 bytes @ 0x0
   341  000016                     	ds	2
   342  000018                     ??_Reverse:
   343  000018                     ?_Prepare_IR_NEC_Data:
   344                           	callstack 0
   345  000018                     TMR0_WriteTimer@timerVal:
   346                           	callstack 0
   347  000018                     PrepareNewCMD@swNum:
   348                           	callstack 0
   349  000018                     Prepare_IR_NEC_Data@cmd:
   350                           	callstack 0
   351  000018                     TMR0_SetInterruptHandler@InterruptHandler:
   352                           	callstack 0
   353  000018                     TMR4_SetInterruptHandler@InterruptHandler:
   354                           	callstack 0
   355                           
   356                           ; 3 bytes @ 0x2
   357  000018                     	ds	1
   358  000019                     PrepareNewCMD@newCommand:
   359                           	callstack 0
   360  000019                     SendIR_Frame@IR_Data:
   361                           	callstack 0
   362                           
   363                           ; 4 bytes @ 0x3
   364  000019                     	ds	1
   365  00001A                     Reverse@byteVar:
   366                           	callstack 0
   367                           
   368                           ; 1 bytes @ 0x4
   369  00001A                     	ds	1
   370  00001B                     
   371                           ; 1 bytes @ 0x5
   372  00001B                     	ds	1
   373  00001C                     ??_Prepare_IR_NEC_Data:
   374                           
   375                           ; 1 bytes @ 0x6
   376  00001C                     	ds	1
   377  00001D                     Prepare_IR_NEC_Data@devAddress:
   378                           	callstack 0
   379  00001D                     SendIR_Frame@numOfBitsToSend:
   380                           	callstack 0
   381                           
   382                           ; 1 bytes @ 0x7
   383  00001D                     	ds	1
   384  00001E                     ??_SendIR_Frame:
   385  00001E                     Prepare_IR_NEC_Data@retData:
   386                           	callstack 0
   387                           
   388                           ; 4 bytes @ 0x8
   389  00001E                     	ds	2
   390  000020                     SendIR_Frame@retValue:
   391                           	callstack 0
   392                           
   393                           ; 1 bytes @ 0xA
   394  000020                     	ds	2
   395  000022                     ??_ApplicationTask:
   396                           
   397                           ; 1 bytes @ 0xC
   398  000022                     	ds	2
   399  000024                     ApplicationTask@retStatus:
   400                           	callstack 0
   401                           
   402                           ; 1 bytes @ 0xE
   403  000024                     	ds	1
   404  000025                     
   405                           ; 1 bytes @ 0xF
   406 ;;
   407 ;;Main: autosize = 0, tempsize = 0, incstack = 0, save=0
   408 ;;
   409 ;; *************** function _main *****************
   410 ;; Defined at:
   411 ;;		line 51 in file "main.c"
   412 ;; Parameters:    Size  Location     Type
   413 ;;		None
   414 ;; Auto vars:     Size  Location     Type
   415 ;;		None
   416 ;; Return value:  Size  Location     Type
   417 ;;                  1    wreg      void 
   418 ;; Registers used:
   419 ;;		wreg, status,2, status,0, cstack
   420 ;; Tracked objects:
   421 ;;		On entry : 0/0
   422 ;;		On exit  : 0/0
   423 ;;		Unchanged: 0/0
   424 ;; Data sizes:     COMRAM   BANK0   BANK1   BANK2   BANK3   BANK4   BANK5   BANK6   BANK7   BANK8   BANK9  BANK10  BANK1
      +1  BANK12  BANK13  BANK14
   425 ;;      Params:         0       0       0       0       0       0       0       0       0       0       0       0       
      +0       0       0       0
   426 ;;      Locals:         0       0       0       0       0       0       0       0       0       0       0       0       
      +0       0       0       0
   427 ;;      Temps:          0       0       0       0       0       0       0       0       0       0       0       0       
      +0       0       0       0
   428 ;;      Totals:         0       0       0       0       0       0       0       0       0       0       0       0       
      +0       0       0       0
   429 ;;Total ram usage:        0 bytes
   430 ;; Hardware stack levels required when called:    6
   431 ;; This function calls:
   432 ;;		_ApplicationTask
   433 ;;		_SYSTEM_Initialize
   434 ;;		_TMR0_SetInterruptHandler
   435 ;;		_TMR4_SetInterruptHandler
   436 ;; This function is called by:
   437 ;;		Startup code after reset
   438 ;; This function uses a non-reentrant model
   439 ;;
   440                           
   441                           	psect	text0
   442  00062A                     __ptext0:
   443                           	callstack 0
   444  00062A                     _main:
   445                           	callstack 25
   446  00062A                     
   447                           ;main.c: 54:     SYSTEM_Initialize();
   448  00062A  ECF6  F002         	call	_SYSTEM_Initialize	;wreg free
   449  00062E                     
   450                           ;main.c: 61:     (INTCONbits.GIE = 1);
   451  00062E  8EF2               	bsf	242,7,c	;volatile
   452  000630                     
   453                           ;main.c: 67:     (INTCONbits.PEIE = 1);
   454  000630  8CF2               	bsf	242,6,c	;volatile
   455  000632                     
   456                           ;main.c: 73:     PIE0bits.TMR0IE = 0;
   457  000632  010E               	movlb	14	; () banked
   458  000634  9BBD               	bcf	189,5,b	;volatile
   459                           
   460                           ;main.c: 76:     TMR0_SetInterruptHandler(TMR0_UserInterruptHandler);
   461  000636  0E8E               	movlw	low _TMR0_UserInterruptHandler
   462  000638  6E18               	movwf	TMR0_SetInterruptHandler@InterruptHandler^0,c
   463  00063A  0E09               	movlw	high _TMR0_UserInterruptHandler
   464  00063C  6E19               	movwf	(TMR0_SetInterruptHandler@InterruptHandler+1)^0,c
   465  00063E  0E00               	movlw	low (_TMR0_UserInterruptHandler shr (0+16))
   466  000640  6E1A               	movwf	(TMR0_SetInterruptHandler@InterruptHandler+2)^0,c
   467  000642  EC8F  F004         	call	_TMR0_SetInterruptHandler	;wreg free
   468                           
   469                           ;main.c: 77:     TMR4_SetInterruptHandler(TMR4_UserInterruptHandler);
   470  000646  0E36               	movlw	low _TMR4_UserInterruptHandler
   471  000648  6E18               	movwf	TMR4_SetInterruptHandler@InterruptHandler^0,c
   472  00064A  0E09               	movlw	high _TMR4_UserInterruptHandler
   473  00064C  6E19               	movwf	(TMR4_SetInterruptHandler@InterruptHandler+1)^0,c
   474  00064E  0E00               	movlw	low (_TMR4_UserInterruptHandler shr (0+16))
   475  000650  6E1A               	movwf	(TMR4_SetInterruptHandler@InterruptHandler+2)^0,c
   476  000652  EC88  F004         	call	_TMR4_SetInterruptHandler	;wreg free
   477  000656  8086               	bsf	134,0,c	;volatile
   478  000658                     l630:
   479                           
   480                           ;main.c: 82:     {;main.c: 84:         ApplicationTask();
   481  000658  ECA3  F001         	call	_ApplicationTask	;wreg free
   482  00065C  EF2C  F003         	goto	l630
   483  000660  EF5F  F000         	goto	start
   484  000664                     __end_of_main:
   485                           	callstack 0
   486                           
   487 ;; *************** function _SYSTEM_Initialize *****************
   488 ;; Defined at:
   489 ;;		line 50 in file "mcc_generated_files/mcc.c"
   490 ;; Parameters:    Size  Location     Type
   491 ;;		None
   492 ;; Auto vars:     Size  Location     Type
   493 ;;		None
   494 ;; Return value:  Size  Location     Type
   495 ;;                  1    wreg      void 
   496 ;; Registers used:
   497 ;;		wreg, status,2, status,0, cstack
   498 ;; Tracked objects:
   499 ;;		On entry : 0/0
   500 ;;		On exit  : 0/0
   501 ;;		Unchanged: 0/0
   502 ;; Data sizes:     COMRAM   BANK0   BANK1   BANK2   BANK3   BANK4   BANK5   BANK6   BANK7   BANK8   BANK9  BANK10  BANK1
      +1  BANK12  BANK13  BANK14
   503 ;;      Params:         0       0       0       0       0       0       0       0       0       0       0       0       
      +0       0       0       0
   504 ;;      Locals:         0       0       0       0       0       0       0       0       0       0       0       0       
      +0       0       0       0
   505 ;;      Temps:          0       0       0       0       0       0       0       0       0       0       0       0       
      +0       0       0       0
   506 ;;      Totals:         0       0       0       0       0       0       0       0       0       0       0       0       
      +0       0       0       0
   507 ;;Total ram usage:        0 bytes
   508 ;; Hardware stack levels used:    1
   509 ;; Hardware stack levels required when called:    5
   510 ;; This function calls:
   511 ;;		_CLC1_Initialize
   512 ;;		_CLC2_Initialize
   513 ;;		_CLC3_Initialize
   514 ;;		_CLC4_Initialize
   515 ;;		_CLC5_Initialize
   516 ;;		_DSM_Initialize
   517 ;;		_INTERRUPT_Initialize
   518 ;;		_OSCILLATOR_Initialize
   519 ;;		_PIN_MANAGER_Initialize
   520 ;;		_PMD_Initialize
   521 ;;		_PWM3_Initialize
   522 ;;		_PWM4_Initialize
   523 ;;		_TMR0_Initialize
   524 ;;		_TMR2_Initialize
   525 ;;		_TMR4_Initialize
   526 ;; This function is called by:
   527 ;;		_main
   528 ;; This function uses a non-reentrant model
   529 ;;
   530                           
   531                           	psect	text1
   532  0005EC                     __ptext1:
   533                           	callstack 0
   534  0005EC                     _SYSTEM_Initialize:
   535                           	callstack 25
   536  0005EC                     
   537                           ;mcc_generated_files/mcc.c: 52:     INTERRUPT_Initialize();
   538  0005EC  ECBB  F004         	call	_INTERRUPT_Initialize	;wreg free
   539  0005F0                     
   540                           ;mcc_generated_files/mcc.c: 53:     PMD_Initialize();
   541  0005F0  EC3F  F004         	call	_PMD_Initialize	;wreg free
   542  0005F4                     
   543                           ;mcc_generated_files/mcc.c: 54:     PIN_MANAGER_Initialize();
   544  0005F4  EC5B  F002         	call	_PIN_MANAGER_Initialize	;wreg free
   545  0005F8                     
   546                           ;mcc_generated_files/mcc.c: 55:     OSCILLATOR_Initialize();
   547  0005F8  EC5B  F004         	call	_OSCILLATOR_Initialize	;wreg free
   548  0005FC                     
   549                           ;mcc_generated_files/mcc.c: 56:     CLC5_Initialize();
   550  0005FC  EC99  F003         	call	_CLC5_Initialize	;wreg free
   551  000600                     
   552                           ;mcc_generated_files/mcc.c: 57:     PWM4_Initialize();
   553  000600  EC72  F004         	call	_PWM4_Initialize	;wreg free
   554  000604                     
   555                           ;mcc_generated_files/mcc.c: 58:     CLC2_Initialize();
   556  000604  ECF5  F003         	call	_CLC2_Initialize	;wreg free
   557  000608                     
   558                           ;mcc_generated_files/mcc.c: 59:     TMR4_Initialize();
   559  000608  EC81  F003         	call	_TMR4_Initialize	;wreg free
   560  00060C                     
   561                           ;mcc_generated_files/mcc.c: 61:     TMR2_Initialize();
   562  00060C  EC30  F004         	call	_TMR2_Initialize	;wreg free
   563  000610                     
   564                           ;mcc_generated_files/mcc.c: 62:     TMR0_Initialize();
   565  000610  EC0B  F004         	call	_TMR0_Initialize	;wreg free
   566  000614                     
   567                           ;mcc_generated_files/mcc.c: 64:     CLC1_Initialize();
   568  000614  ECB1  F003         	call	_CLC1_Initialize	;wreg free
   569  000618                     
   570                           ;mcc_generated_files/mcc.c: 65:     CLC4_Initialize();
   571  000618  ECC9  F003         	call	_CLC4_Initialize	;wreg free
   572  00061C                     
   573                           ;mcc_generated_files/mcc.c: 66:     CLC3_Initialize();
   574  00061C  ECDF  F003         	call	_CLC3_Initialize	;wreg free
   575  000620                     
   576                           ;mcc_generated_files/mcc.c: 67:     PWM3_Initialize();
   577  000620  EC7D  F004         	call	_PWM3_Initialize	;wreg free
   578  000624                     
   579                           ;mcc_generated_files/mcc.c: 68:     DSM_Initialize();
   580  000624  EC4D  F004         	call	_DSM_Initialize	;wreg free
   581  000628  0012               	return		;funcret
   582  00062A                     __end_of_SYSTEM_Initialize:
   583                           	callstack 0
   584                           
   585 ;; *************** function _TMR4_Initialize *****************
   586 ;; Defined at:
   587 ;;		line 67 in file "mcc_generated_files/tmr4.c"
   588 ;; Parameters:    Size  Location     Type
   589 ;;		None
   590 ;; Auto vars:     Size  Location     Type
   591 ;;		None
   592 ;; Return value:  Size  Location     Type
   593 ;;                  1    wreg      void 
   594 ;; Registers used:
   595 ;;		wreg, status,2, status,0, cstack
   596 ;; Tracked objects:
   597 ;;		On entry : 0/0
   598 ;;		On exit  : 0/0
   599 ;;		Unchanged: 0/0
   600 ;; Data sizes:     COMRAM   BANK0   BANK1   BANK2   BANK3   BANK4   BANK5   BANK6   BANK7   BANK8   BANK9  BANK10  BANK1
      +1  BANK12  BANK13  BANK14
   601 ;;      Params:         0       0       0       0       0       0       0       0       0       0       0       0       
      +0       0       0       0
   602 ;;      Locals:         0       0       0       0       0       0       0       0       0       0       0       0       
      +0       0       0       0
   603 ;;      Temps:          0       0       0       0       0       0       0       0       0       0       0       0       
      +0       0       0       0
   604 ;;      Totals:         0       0       0       0       0       0       0       0       0       0       0       0       
      +0       0       0       0
   605 ;;Total ram usage:        0 bytes
   606 ;; Hardware stack levels used:    1
   607 ;; Hardware stack levels required when called:    4
   608 ;; This function calls:
   609 ;;		_TMR4_SetInterruptHandler
   610 ;; This function is called by:
   611 ;;		_SYSTEM_Initialize
   612 ;; This function uses a non-reentrant model
   613 ;;
   614                           
   615                           	psect	text2
   616  000702                     __ptext2:
   617                           	callstack 0
   618  000702                     _TMR4_Initialize:
   619                           	callstack 25
   620  000702                     
   621                           ;mcc_generated_files/tmr4.c: 72:     T4CLKCON = 0x04;
   622  000702  0E04               	movlw	4
   623  000704  6EB8               	movwf	184,c	;volatile
   624                           
   625                           ;mcc_generated_files/tmr4.c: 75:     T4HLT = 0x13;
   626  000706  0E13               	movlw	19
   627  000708  6EB7               	movwf	183,c	;volatile
   628                           
   629                           ;mcc_generated_files/tmr4.c: 78:     T4RST = 0x00;
   630  00070A  0E00               	movlw	0
   631  00070C  6EB9               	movwf	185,c	;volatile
   632                           
   633                           ;mcc_generated_files/tmr4.c: 81:     T4PR = 0x4D;
   634  00070E  0E4D               	movlw	77
   635  000710  6EB5               	movwf	181,c	;volatile
   636                           
   637                           ;mcc_generated_files/tmr4.c: 84:     T4TMR = 0x00;
   638  000712  0E00               	movlw	0
   639  000714  6EB4               	movwf	180,c	;volatile
   640  000716                     
   641                           ;mcc_generated_files/tmr4.c: 87:     PIR4bits.TMR4IF = 0;
   642  000716  010E               	movlb	14	; () banked
   643  000718  97C9               	bcf	201,3,b	;volatile
   644  00071A                     
   645                           ; BSR set to: 14
   646                           ;mcc_generated_files/tmr4.c: 90:     PIE4bits.TMR4IE = 1;
   647  00071A  87C1               	bsf	193,3,b	;volatile
   648  00071C                     
   649                           ; BSR set to: 14
   650                           ;mcc_generated_files/tmr4.c: 93:     TMR4_SetInterruptHandler(TMR4_DefaultInterruptHandl
      +                          er);
   651  00071C  0E2C               	movlw	low _TMR4_DefaultInterruptHandler
   652  00071E  6E18               	movwf	TMR4_SetInterruptHandler@InterruptHandler^0,c
   653  000720  0E09               	movlw	high _TMR4_DefaultInterruptHandler
   654  000722  6E19               	movwf	(TMR4_SetInterruptHandler@InterruptHandler+1)^0,c
   655  000724  0E00               	movlw	low (_TMR4_DefaultInterruptHandler shr (0+16))
   656  000726  6E1A               	movwf	(TMR4_SetInterruptHandler@InterruptHandler+2)^0,c
   657  000728  EC88  F004         	call	_TMR4_SetInterruptHandler	;wreg free
   658  00072C                     
   659                           ;mcc_generated_files/tmr4.c: 96:     T4CON = 0x91;
   660  00072C  0E91               	movlw	145
   661  00072E  6EB6               	movwf	182,c	;volatile
   662  000730  0012               	return		;funcret
   663  000732                     __end_of_TMR4_Initialize:
   664                           	callstack 0
   665                           
   666 ;; *************** function _TMR4_SetInterruptHandler *****************
   667 ;; Defined at:
   668 ;;		line 181 in file "mcc_generated_files/tmr4.c"
   669 ;; Parameters:    Size  Location     Type
   670 ;;  InterruptHan    3    2[COMRAM] PTR FTN()void 
   671 ;;		 -> TMR4_UserInterruptHandler(1), TMR4_DefaultInterruptHandler(1), 
   672 ;; Auto vars:     Size  Location     Type
   673 ;;		None
   674 ;; Return value:  Size  Location     Type
   675 ;;                  1    wreg      void 
   676 ;; Registers used:
   677 ;;		wreg, status,2, status,0
   678 ;; Tracked objects:
   679 ;;		On entry : 0/0
   680 ;;		On exit  : 0/0
   681 ;;		Unchanged: 0/0
   682 ;; Data sizes:     COMRAM   BANK0   BANK1   BANK2   BANK3   BANK4   BANK5   BANK6   BANK7   BANK8   BANK9  BANK10  BANK1
      +1  BANK12  BANK13  BANK14
   683 ;;      Params:         3       0       0       0       0       0       0       0       0       0       0       0       
      +0       0       0       0
   684 ;;      Locals:         0       0       0       0       0       0       0       0       0       0       0       0       
      +0       0       0       0
   685 ;;      Temps:          0       0       0       0       0       0       0       0       0       0       0       0       
      +0       0       0       0
   686 ;;      Totals:         3       0       0       0       0       0       0       0       0       0       0       0       
      +0       0       0       0
   687 ;;Total ram usage:        3 bytes
   688 ;; Hardware stack levels used:    1
   689 ;; Hardware stack levels required when called:    3
   690 ;; This function calls:
   691 ;;		Nothing
   692 ;; This function is called by:
   693 ;;		_TMR4_Initialize
   694 ;;		_main
   695 ;; This function uses a non-reentrant model
   696 ;;
   697                           
   698                           	psect	text3
   699  000910                     __ptext3:
   700                           	callstack 0
   701  000910                     _TMR4_SetInterruptHandler:
   702                           	callstack 27
   703  000910                     
   704                           ;mcc_generated_files/tmr4.c: 182:     TMR4_InterruptHandler = InterruptHandler;
   705  000910  C018  F025         	movff	TMR4_SetInterruptHandler@InterruptHandler,_TMR4_InterruptHandler
   706  000914  C019  F026         	movff	TMR4_SetInterruptHandler@InterruptHandler+1,_TMR4_InterruptHandler+1
   707  000918  C01A  F027         	movff	TMR4_SetInterruptHandler@InterruptHandler+2,_TMR4_InterruptHandler+2
   708  00091C  0012               	return		;funcret
   709  00091E                     __end_of_TMR4_SetInterruptHandler:
   710                           	callstack 0
   711                           
   712 ;; *************** function _TMR2_Initialize *****************
   713 ;; Defined at:
   714 ;;		line 62 in file "mcc_generated_files/tmr2.c"
   715 ;; Parameters:    Size  Location     Type
   716 ;;		None
   717 ;; Auto vars:     Size  Location     Type
   718 ;;		None
   719 ;; Return value:  Size  Location     Type
   720 ;;                  1    wreg      void 
   721 ;; Registers used:
   722 ;;		wreg, status,2
   723 ;; Tracked objects:
   724 ;;		On entry : 0/0
   725 ;;		On exit  : 0/0
   726 ;;		Unchanged: 0/0
   727 ;; Data sizes:     COMRAM   BANK0   BANK1   BANK2   BANK3   BANK4   BANK5   BANK6   BANK7   BANK8   BANK9  BANK10  BANK1
      +1  BANK12  BANK13  BANK14
   728 ;;      Params:         0       0       0       0       0       0       0       0       0       0       0       0       
      +0       0       0       0
   729 ;;      Locals:         0       0       0       0       0       0       0       0       0       0       0       0       
      +0       0       0       0
   730 ;;      Temps:          0       0       0       0       0       0       0       0       0       0       0       0       
      +0       0       0       0
   731 ;;      Totals:         0       0       0       0       0       0       0       0       0       0       0       0       
      +0       0       0       0
   732 ;;Total ram usage:        0 bytes
   733 ;; Hardware stack levels used:    1
   734 ;; Hardware stack levels required when called:    3
   735 ;; This function calls:
   736 ;;		Nothing
   737 ;; This function is called by:
   738 ;;		_SYSTEM_Initialize
   739 ;; This function uses a non-reentrant model
   740 ;;
   741                           
   742                           	psect	text4
   743  000860                     __ptext4:
   744                           	callstack 0
   745  000860                     _TMR2_Initialize:
   746                           	callstack 26
   747  000860                     
   748                           ;mcc_generated_files/tmr2.c: 67:     T2CLKCON = 0x01;
   749  000860  0E01               	movlw	1
   750  000862  6EBE               	movwf	190,c	;volatile
   751                           
   752                           ;mcc_generated_files/tmr2.c: 70:     T2HLT = 0x00;
   753  000864  0E00               	movlw	0
   754  000866  6EBD               	movwf	189,c	;volatile
   755                           
   756                           ;mcc_generated_files/tmr2.c: 73:     T2RST = 0x00;
   757  000868  0E00               	movlw	0
   758  00086A  6EBF               	movwf	191,c	;volatile
   759                           
   760                           ;mcc_generated_files/tmr2.c: 76:     T2PR = 0xD0;
   761  00086C  0ED0               	movlw	208
   762  00086E  6EBB               	movwf	187,c	;volatile
   763                           
   764                           ;mcc_generated_files/tmr2.c: 79:     T2TMR = 0x00;
   765  000870  0E00               	movlw	0
   766  000872  6EBA               	movwf	186,c	;volatile
   767  000874                     
   768                           ;mcc_generated_files/tmr2.c: 82:     PIR4bits.TMR2IF = 0;
   769  000874  010E               	movlb	14	; () banked
   770  000876  93C9               	bcf	201,1,b	;volatile
   771                           
   772                           ;mcc_generated_files/tmr2.c: 85:     T2CON = 0x80;
   773  000878  0E80               	movlw	128
   774  00087A  6EBC               	movwf	188,c	;volatile
   775  00087C                     
   776                           ; BSR set to: 14
   777  00087C  0012               	return		;funcret
   778  00087E                     __end_of_TMR2_Initialize:
   779                           	callstack 0
   780                           
   781 ;; *************** function _TMR0_Initialize *****************
   782 ;; Defined at:
   783 ;;		line 62 in file "mcc_generated_files/tmr0.c"
   784 ;; Parameters:    Size  Location     Type
   785 ;;		None
   786 ;; Auto vars:     Size  Location     Type
   787 ;;		None
   788 ;; Return value:  Size  Location     Type
   789 ;;                  1    wreg      void 
   790 ;; Registers used:
   791 ;;		wreg, status,2, status,0, cstack
   792 ;; Tracked objects:
   793 ;;		On entry : 0/0
   794 ;;		On exit  : 0/0
   795 ;;		Unchanged: 0/0
   796 ;; Data sizes:     COMRAM   BANK0   BANK1   BANK2   BANK3   BANK4   BANK5   BANK6   BANK7   BANK8   BANK9  BANK10  BANK1
      +1  BANK12  BANK13  BANK14
   797 ;;      Params:         0       0       0       0       0       0       0       0       0       0       0       0       
      +0       0       0       0
   798 ;;      Locals:         0       0       0       0       0       0       0       0       0       0       0       0       
      +0       0       0       0
   799 ;;      Temps:          0       0       0       0       0       0       0       0       0       0       0       0       
      +0       0       0       0
   800 ;;      Totals:         0       0       0       0       0       0       0       0       0       0       0       0       
      +0       0       0       0
   801 ;;Total ram usage:        0 bytes
   802 ;; Hardware stack levels used:    1
   803 ;; Hardware stack levels required when called:    4
   804 ;; This function calls:
   805 ;;		_TMR0_SetInterruptHandler
   806 ;; This function is called by:
   807 ;;		_SYSTEM_Initialize
   808 ;; This function uses a non-reentrant model
   809 ;;
   810                           
   811                           	psect	text5
   812  000816                     __ptext5:
   813                           	callstack 0
   814  000816                     _TMR0_Initialize:
   815                           	callstack 25
   816  000816                     
   817                           ;mcc_generated_files/tmr0.c: 67:     T0CON1 = 0x48;
   818  000816  0E48               	movlw	72
   819  000818  6ED5               	movwf	213,c	;volatile
   820                           
   821                           ;mcc_generated_files/tmr0.c: 70:     TMR0H = 0x8C;
   822  00081A  0E8C               	movlw	140
   823  00081C  6ED3               	movwf	211,c	;volatile
   824                           
   825                           ;mcc_generated_files/tmr0.c: 73:     TMR0L = 0x00;
   826  00081E  0E00               	movlw	0
   827  000820  6ED2               	movwf	210,c	;volatile
   828  000822                     
   829                           ;mcc_generated_files/tmr0.c: 76:     PIR0bits.TMR0IF = 0;
   830  000822  010E               	movlb	14	; () banked
   831  000824  9BC5               	bcf	197,5,b	;volatile
   832  000826                     
   833                           ; BSR set to: 14
   834                           ;mcc_generated_files/tmr0.c: 79:     PIE0bits.TMR0IE = 1;
   835  000826  8BBD               	bsf	189,5,b	;volatile
   836  000828                     
   837                           ; BSR set to: 14
   838                           ;mcc_generated_files/tmr0.c: 82:     TMR0_SetInterruptHandler(TMR0_DefaultInterruptHandl
      +                          er);
   839  000828  0E8A               	movlw	low _TMR0_DefaultInterruptHandler
   840  00082A  6E18               	movwf	TMR0_SetInterruptHandler@InterruptHandler^0,c
   841  00082C  0E09               	movlw	high _TMR0_DefaultInterruptHandler
   842  00082E  6E19               	movwf	(TMR0_SetInterruptHandler@InterruptHandler+1)^0,c
   843  000830  0E00               	movlw	low (_TMR0_DefaultInterruptHandler shr (0+16))
   844  000832  6E1A               	movwf	(TMR0_SetInterruptHandler@InterruptHandler+2)^0,c
   845  000834  EC8F  F004         	call	_TMR0_SetInterruptHandler	;wreg free
   846  000838                     
   847                           ;mcc_generated_files/tmr0.c: 85:     T0CON0 = 0x00;
   848  000838  0E00               	movlw	0
   849  00083A  6ED4               	movwf	212,c	;volatile
   850  00083C  0012               	return		;funcret
   851  00083E                     __end_of_TMR0_Initialize:
   852                           	callstack 0
   853                           
   854 ;; *************** function _TMR0_SetInterruptHandler *****************
   855 ;; Defined at:
   856 ;;		line 135 in file "mcc_generated_files/tmr0.c"
   857 ;; Parameters:    Size  Location     Type
   858 ;;  InterruptHan    3    2[COMRAM] PTR FTN()void 
   859 ;;		 -> TMR0_UserInterruptHandler(1), TMR0_DefaultInterruptHandler(1), 
   860 ;; Auto vars:     Size  Location     Type
   861 ;;		None
   862 ;; Return value:  Size  Location     Type
   863 ;;                  1    wreg      void 
   864 ;; Registers used:
   865 ;;		wreg, status,2, status,0
   866 ;; Tracked objects:
   867 ;;		On entry : 0/0
   868 ;;		On exit  : 0/0
   869 ;;		Unchanged: 0/0
   870 ;; Data sizes:     COMRAM   BANK0   BANK1   BANK2   BANK3   BANK4   BANK5   BANK6   BANK7   BANK8   BANK9  BANK10  BANK1
      +1  BANK12  BANK13  BANK14
   871 ;;      Params:         3       0       0       0       0       0       0       0       0       0       0       0       
      +0       0       0       0
   872 ;;      Locals:         0       0       0       0       0       0       0       0       0       0       0       0       
      +0       0       0       0
   873 ;;      Temps:          0       0       0       0       0       0       0       0       0       0       0       0       
      +0       0       0       0
   874 ;;      Totals:         3       0       0       0       0       0       0       0       0       0       0       0       
      +0       0       0       0
   875 ;;Total ram usage:        3 bytes
   876 ;; Hardware stack levels used:    1
   877 ;; Hardware stack levels required when called:    3
   878 ;; This function calls:
   879 ;;		Nothing
   880 ;; This function is called by:
   881 ;;		_TMR0_Initialize
   882 ;;		_main
   883 ;; This function uses a non-reentrant model
   884 ;;
   885                           
   886                           	psect	text6
   887  00091E                     __ptext6:
   888                           	callstack 0
   889  00091E                     _TMR0_SetInterruptHandler:
   890                           	callstack 27
   891  00091E                     
   892                           ;mcc_generated_files/tmr0.c: 136:     TMR0_InterruptHandler = InterruptHandler;
   893  00091E  C018  F028         	movff	TMR0_SetInterruptHandler@InterruptHandler,_TMR0_InterruptHandler
   894  000922  C019  F029         	movff	TMR0_SetInterruptHandler@InterruptHandler+1,_TMR0_InterruptHandler+1
   895  000926  C01A  F02A         	movff	TMR0_SetInterruptHandler@InterruptHandler+2,_TMR0_InterruptHandler+2
   896  00092A  0012               	return		;funcret
   897  00092C                     __end_of_TMR0_SetInterruptHandler:
   898                           	callstack 0
   899                           
   900 ;; *************** function _PWM4_Initialize *****************
   901 ;; Defined at:
   902 ;;		line 58 in file "mcc_generated_files/pwm4.c"
   903 ;; Parameters:    Size  Location     Type
   904 ;;		None
   905 ;; Auto vars:     Size  Location     Type
   906 ;;		None
   907 ;; Return value:  Size  Location     Type
   908 ;;                  1    wreg      void 
   909 ;; Registers used:
   910 ;;		wreg, status,2
   911 ;; Tracked objects:
   912 ;;		On entry : 0/0
   913 ;;		On exit  : 0/0
   914 ;;		Unchanged: 0/0
   915 ;; Data sizes:     COMRAM   BANK0   BANK1   BANK2   BANK3   BANK4   BANK5   BANK6   BANK7   BANK8   BANK9  BANK10  BANK1
      +1  BANK12  BANK13  BANK14
   916 ;;      Params:         0       0       0       0       0       0       0       0       0       0       0       0       
      +0       0       0       0
   917 ;;      Locals:         0       0       0       0       0       0       0       0       0       0       0       0       
      +0       0       0       0
   918 ;;      Temps:          0       0       0       0       0       0       0       0       0       0       0       0       
      +0       0       0       0
   919 ;;      Totals:         0       0       0       0       0       0       0       0       0       0       0       0       
      +0       0       0       0
   920 ;;Total ram usage:        0 bytes
   921 ;; Hardware stack levels used:    1
   922 ;; Hardware stack levels required when called:    3
   923 ;; This function calls:
   924 ;;		Nothing
   925 ;; This function is called by:
   926 ;;		_SYSTEM_Initialize
   927 ;; This function uses a non-reentrant model
   928 ;;
   929                           
   930                           	psect	text7
   931  0008E4                     __ptext7:
   932                           	callstack 0
   933  0008E4                     _PWM4_Initialize:
   934                           	callstack 26
   935  0008E4                     
   936                           ;mcc_generated_files/pwm4.c: 62:     PWM4CON = 0x80;
   937  0008E4  0E80               	movlw	128
   938  0008E6  6EA1               	movwf	161,c	;volatile
   939                           
   940                           ;mcc_generated_files/pwm4.c: 65:     PWM4DCH = 0x00;
   941  0008E8  0E00               	movlw	0
   942  0008EA  6EA0               	movwf	160,c	;volatile
   943                           
   944                           ;mcc_generated_files/pwm4.c: 68:     PWM4DCL = 0x00;
   945  0008EC  0E00               	movlw	0
   946  0008EE  6E9F               	movwf	159,c	;volatile
   947                           
   948                           ;mcc_generated_files/pwm4.c: 71:     CCPTMRSbits.P4TSEL = 1;
   949  0008F0  50AD               	movf	173,w,c	;volatile
   950  0008F2  0B3F               	andlw	-193
   951  0008F4  0940               	iorlw	64
   952  0008F6  6EAD               	movwf	173,c	;volatile
   953  0008F8  0012               	return		;funcret
   954  0008FA                     __end_of_PWM4_Initialize:
   955                           	callstack 0
   956                           
   957 ;; *************** function _PWM3_Initialize *****************
   958 ;; Defined at:
   959 ;;		line 58 in file "mcc_generated_files/pwm3.c"
   960 ;; Parameters:    Size  Location     Type
   961 ;;		None
   962 ;; Auto vars:     Size  Location     Type
   963 ;;		None
   964 ;; Return value:  Size  Location     Type
   965 ;;                  1    wreg      void 
   966 ;; Registers used:
   967 ;;		wreg, status,2
   968 ;; Tracked objects:
   969 ;;		On entry : 0/0
   970 ;;		On exit  : 0/0
   971 ;;		Unchanged: 0/0
   972 ;; Data sizes:     COMRAM   BANK0   BANK1   BANK2   BANK3   BANK4   BANK5   BANK6   BANK7   BANK8   BANK9  BANK10  BANK1
      +1  BANK12  BANK13  BANK14
   973 ;;      Params:         0       0       0       0       0       0       0       0       0       0       0       0       
      +0       0       0       0
   974 ;;      Locals:         0       0       0       0       0       0       0       0       0       0       0       0       
      +0       0       0       0
   975 ;;      Temps:          0       0       0       0       0       0       0       0       0       0       0       0       
      +0       0       0       0
   976 ;;      Totals:         0       0       0       0       0       0       0       0       0       0       0       0       
      +0       0       0       0
   977 ;;Total ram usage:        0 bytes
   978 ;; Hardware stack levels used:    1
   979 ;; Hardware stack levels required when called:    3
   980 ;; This function calls:
   981 ;;		Nothing
   982 ;; This function is called by:
   983 ;;		_SYSTEM_Initialize
   984 ;; This function uses a non-reentrant model
   985 ;;
   986                           
   987                           	psect	text8
   988  0008FA                     __ptext8:
   989                           	callstack 0
   990  0008FA                     _PWM3_Initialize:
   991                           	callstack 26
   992  0008FA                     
   993                           ;mcc_generated_files/pwm3.c: 62:     PWM3CON = 0x80;
   994  0008FA  0E80               	movlw	128
   995  0008FC  6EA4               	movwf	164,c	;volatile
   996                           
   997                           ;mcc_generated_files/pwm3.c: 65:     PWM3DCH = 0x68;
   998  0008FE  0E68               	movlw	104
   999  000900  6EA3               	movwf	163,c	;volatile
  1000                           
  1001                           ;mcc_generated_files/pwm3.c: 68:     PWM3DCL = 0x40;
  1002  000902  0E40               	movlw	64
  1003  000904  6EA2               	movwf	162,c	;volatile
  1004                           
  1005                           ;mcc_generated_files/pwm3.c: 71:     CCPTMRSbits.P3TSEL = 1;
  1006  000906  50AD               	movf	173,w,c	;volatile
  1007  000908  0BCF               	andlw	-49
  1008  00090A  0910               	iorlw	16
  1009  00090C  6EAD               	movwf	173,c	;volatile
  1010  00090E  0012               	return		;funcret
  1011  000910                     __end_of_PWM3_Initialize:
  1012                           	callstack 0
  1013                           
  1014 ;; *************** function _PMD_Initialize *****************
  1015 ;; Defined at:
  1016 ;;		line 85 in file "mcc_generated_files/mcc.c"
  1017 ;; Parameters:    Size  Location     Type
  1018 ;;		None
  1019 ;; Auto vars:     Size  Location     Type
  1020 ;;		None
  1021 ;; Return value:  Size  Location     Type
  1022 ;;                  1    wreg      void 
  1023 ;; Registers used:
  1024 ;;		wreg, status,2
  1025 ;; Tracked objects:
  1026 ;;		On entry : 0/0
  1027 ;;		On exit  : 0/0
  1028 ;;		Unchanged: 0/0
  1029 ;; Data sizes:     COMRAM   BANK0   BANK1   BANK2   BANK3   BANK4   BANK5   BANK6   BANK7   BANK8   BANK9  BANK10  BANK1
      +1  BANK12  BANK13  BANK14
  1030 ;;      Params:         0       0       0       0       0       0       0       0       0       0       0       0       
      +0       0       0       0
  1031 ;;      Locals:         0       0       0       0       0       0       0       0       0       0       0       0       
      +0       0       0       0
  1032 ;;      Temps:          0       0       0       0       0       0       0       0       0       0       0       0       
      +0       0       0       0
  1033 ;;      Totals:         0       0       0       0       0       0       0       0       0       0       0       0       
      +0       0       0       0
  1034 ;;Total ram usage:        0 bytes
  1035 ;; Hardware stack levels used:    1
  1036 ;; Hardware stack levels required when called:    3
  1037 ;; This function calls:
  1038 ;;		Nothing
  1039 ;; This function is called by:
  1040 ;;		_SYSTEM_Initialize
  1041 ;; This function uses a non-reentrant model
  1042 ;;
  1043                           
  1044                           	psect	text9
  1045  00087E                     __ptext9:
  1046                           	callstack 0
  1047  00087E                     _PMD_Initialize:
  1048                           	callstack 26
  1049  00087E                     
  1050                           ;mcc_generated_files/mcc.c: 88:     PMD0 = 0x00;
  1051  00087E  0E00               	movlw	0
  1052  000880  010E               	movlb	14	; () banked
  1053  000882  6FDC               	movwf	220,b	;volatile
  1054                           
  1055                           ;mcc_generated_files/mcc.c: 90:     PMD1 = 0x00;
  1056  000884  0E00               	movlw	0
  1057  000886  6FDD               	movwf	221,b	;volatile
  1058                           
  1059                           ;mcc_generated_files/mcc.c: 92:     PMD2 = 0x00;
  1060  000888  0E00               	movlw	0
  1061  00088A  6FDE               	movwf	222,b	;volatile
  1062                           
  1063                           ;mcc_generated_files/mcc.c: 94:     PMD3 = 0x00;
  1064  00088C  0E00               	movlw	0
  1065  00088E  6FDF               	movwf	223,b	;volatile
  1066                           
  1067                           ;mcc_generated_files/mcc.c: 96:     PMD4 = 0x00;
  1068  000890  0E00               	movlw	0
  1069  000892  6FE0               	movwf	224,b	;volatile
  1070                           
  1071                           ;mcc_generated_files/mcc.c: 98:     PMD5 = 0x00;
  1072  000894  0E00               	movlw	0
  1073  000896  6FE1               	movwf	225,b	;volatile
  1074  000898                     
  1075                           ; BSR set to: 14
  1076  000898  0012               	return		;funcret
  1077  00089A                     __end_of_PMD_Initialize:
  1078                           	callstack 0
  1079                           
  1080 ;; *************** function _PIN_MANAGER_Initialize *****************
  1081 ;; Defined at:
  1082 ;;		line 55 in file "mcc_generated_files/pin_manager.c"
  1083 ;; Parameters:    Size  Location     Type
  1084 ;;		None
  1085 ;; Auto vars:     Size  Location     Type
  1086 ;;		None
  1087 ;; Return value:  Size  Location     Type
  1088 ;;                  1    wreg      void 
  1089 ;; Registers used:
  1090 ;;		wreg, status,2
  1091 ;; Tracked objects:
  1092 ;;		On entry : 0/0
  1093 ;;		On exit  : 0/0
  1094 ;;		Unchanged: 0/0
  1095 ;; Data sizes:     COMRAM   BANK0   BANK1   BANK2   BANK3   BANK4   BANK5   BANK6   BANK7   BANK8   BANK9  BANK10  BANK1
      +1  BANK12  BANK13  BANK14
  1096 ;;      Params:         0       0       0       0       0       0       0       0       0       0       0       0       
      +0       0       0       0
  1097 ;;      Locals:         0       0       0       0       0       0       0       0       0       0       0       0       
      +0       0       0       0
  1098 ;;      Temps:          0       0       0       0       0       0       0       0       0       0       0       0       
      +0       0       0       0
  1099 ;;      Totals:         0       0       0       0       0       0       0       0       0       0       0       0       
      +0       0       0       0
  1100 ;;Total ram usage:        0 bytes
  1101 ;; Hardware stack levels used:    1
  1102 ;; Hardware stack levels required when called:    3
  1103 ;; This function calls:
  1104 ;;		Nothing
  1105 ;; This function is called by:
  1106 ;;		_SYSTEM_Initialize
  1107 ;; This function uses a non-reentrant model
  1108 ;;
  1109                           
  1110                           	psect	text10
  1111  0004B6                     __ptext10:
  1112                           	callstack 0
  1113  0004B6                     _PIN_MANAGER_Initialize:
  1114                           	callstack 26
  1115  0004B6                     
  1116                           ;mcc_generated_files/pin_manager.c: 60:     LATE = 0x00;
  1117  0004B6  0E00               	movlw	0
  1118  0004B8  6E86               	movwf	134,c	;volatile
  1119                           
  1120                           ;mcc_generated_files/pin_manager.c: 61:     LATD = 0x00;
  1121  0004BA  0E00               	movlw	0
  1122  0004BC  6E85               	movwf	133,c	;volatile
  1123                           
  1124                           ;mcc_generated_files/pin_manager.c: 62:     LATA = 0x00;
  1125  0004BE  0E00               	movlw	0
  1126  0004C0  6E82               	movwf	130,c	;volatile
  1127                           
  1128                           ;mcc_generated_files/pin_manager.c: 63:     LATB = 0x00;
  1129  0004C2  0E00               	movlw	0
  1130  0004C4  6E83               	movwf	131,c	;volatile
  1131                           
  1132                           ;mcc_generated_files/pin_manager.c: 64:     LATC = 0x00;
  1133  0004C6  0E00               	movlw	0
  1134  0004C8  6E84               	movwf	132,c	;volatile
  1135                           
  1136                           ;mcc_generated_files/pin_manager.c: 69:     TRISE = 0x06;
  1137  0004CA  0E06               	movlw	6
  1138  0004CC  6E8B               	movwf	139,c	;volatile
  1139                           
  1140                           ;mcc_generated_files/pin_manager.c: 70:     TRISA = 0xF7;
  1141  0004CE  0EF7               	movlw	247
  1142  0004D0  6E87               	movwf	135,c	;volatile
  1143  0004D2                     
  1144                           ;mcc_generated_files/pin_manager.c: 71:     TRISB = 0xFF;
  1145  0004D2  6888               	setf	136,c	;volatile
  1146  0004D4                     
  1147                           ;mcc_generated_files/pin_manager.c: 72:     TRISC = 0xFF;
  1148  0004D4  6889               	setf	137,c	;volatile
  1149  0004D6                     
  1150                           ;mcc_generated_files/pin_manager.c: 73:     TRISD = 0xFF;
  1151  0004D6  688A               	setf	138,c	;volatile
  1152  0004D8                     
  1153                           ;mcc_generated_files/pin_manager.c: 78:     ANSELD = 0xFF;
  1154  0004D8  010F               	movlb	15	; () banked
  1155  0004DA  6921               	setf	33,b	;volatile
  1156                           
  1157                           ;mcc_generated_files/pin_manager.c: 79:     ANSELC = 0xDF;
  1158  0004DC  0EDF               	movlw	223
  1159  0004DE  6F1C               	movwf	28,b	;volatile
  1160  0004E0                     
  1161                           ; BSR set to: 15
  1162                           ;mcc_generated_files/pin_manager.c: 80:     ANSELB = 0xFF;
  1163  0004E0  6914               	setf	20,b	;volatile
  1164                           
  1165                           ;mcc_generated_files/pin_manager.c: 81:     ANSELE = 0x02;
  1166  0004E2  0E02               	movlw	2
  1167  0004E4  6F29               	movwf	41,b	;volatile
  1168                           
  1169                           ;mcc_generated_files/pin_manager.c: 82:     ANSELA = 0xF6;
  1170  0004E6  0EF6               	movlw	246
  1171  0004E8  6F0C               	movwf	12,b	;volatile
  1172                           
  1173                           ;mcc_generated_files/pin_manager.c: 87:     WPUD = 0x00;
  1174  0004EA  0E00               	movlw	0
  1175  0004EC  6F20               	movwf	32,b	;volatile
  1176                           
  1177                           ;mcc_generated_files/pin_manager.c: 88:     WPUE = 0x00;
  1178  0004EE  0E00               	movlw	0
  1179  0004F0  6F28               	movwf	40,b	;volatile
  1180                           
  1181                           ;mcc_generated_files/pin_manager.c: 89:     WPUB = 0x10;
  1182  0004F2  0E10               	movlw	16
  1183  0004F4  6F13               	movwf	19,b	;volatile
  1184                           
  1185                           ;mcc_generated_files/pin_manager.c: 90:     WPUA = 0x00;
  1186  0004F6  0E00               	movlw	0
  1187  0004F8  6F0B               	movwf	11,b	;volatile
  1188                           
  1189                           ;mcc_generated_files/pin_manager.c: 91:     WPUC = 0x20;
  1190  0004FA  0E20               	movlw	32
  1191  0004FC  6F1B               	movwf	27,b	;volatile
  1192                           
  1193                           ;mcc_generated_files/pin_manager.c: 96:     ODCONE = 0x00;
  1194  0004FE  0E00               	movlw	0
  1195  000500  6F27               	movwf	39,b	;volatile
  1196                           
  1197                           ;mcc_generated_files/pin_manager.c: 97:     ODCONA = 0x00;
  1198  000502  0E00               	movlw	0
  1199  000504  6F0A               	movwf	10,b	;volatile
  1200                           
  1201                           ;mcc_generated_files/pin_manager.c: 98:     ODCONB = 0x00;
  1202  000506  0E00               	movlw	0
  1203  000508  6F12               	movwf	18,b	;volatile
  1204                           
  1205                           ;mcc_generated_files/pin_manager.c: 99:     ODCONC = 0x00;
  1206  00050A  0E00               	movlw	0
  1207  00050C  6F1A               	movwf	26,b	;volatile
  1208                           
  1209                           ;mcc_generated_files/pin_manager.c: 100:     ODCOND = 0x00;
  1210  00050E  0E00               	movlw	0
  1211  000510  6F1F               	movwf	31,b	;volatile
  1212  000512                     
  1213                           ; BSR set to: 15
  1214                           ;mcc_generated_files/pin_manager.c: 105:     SLRCONA = 0xFF;
  1215  000512  6909               	setf	9,b	;volatile
  1216  000514                     
  1217                           ; BSR set to: 15
  1218                           ;mcc_generated_files/pin_manager.c: 106:     SLRCONB = 0xFF;
  1219  000514  6911               	setf	17,b	;volatile
  1220  000516                     
  1221                           ; BSR set to: 15
  1222                           ;mcc_generated_files/pin_manager.c: 107:     SLRCONC = 0xFF;
  1223  000516  6919               	setf	25,b	;volatile
  1224  000518                     
  1225                           ; BSR set to: 15
  1226                           ;mcc_generated_files/pin_manager.c: 108:     SLRCOND = 0xFF;
  1227  000518  691E               	setf	30,b	;volatile
  1228                           
  1229                           ;mcc_generated_files/pin_manager.c: 109:     SLRCONE = 0x07;
  1230  00051A  0E07               	movlw	7
  1231  00051C  6F26               	movwf	38,b	;volatile
  1232  00051E                     
  1233                           ; BSR set to: 15
  1234                           ;mcc_generated_files/pin_manager.c: 114:     INLVLA = 0xFF;
  1235  00051E  6908               	setf	8,b	;volatile
  1236  000520                     
  1237                           ; BSR set to: 15
  1238                           ;mcc_generated_files/pin_manager.c: 115:     INLVLB = 0xFF;
  1239  000520  6910               	setf	16,b	;volatile
  1240  000522                     
  1241                           ; BSR set to: 15
  1242                           ;mcc_generated_files/pin_manager.c: 116:     INLVLC = 0xFF;
  1243  000522  6918               	setf	24,b	;volatile
  1244  000524                     
  1245                           ; BSR set to: 15
  1246                           ;mcc_generated_files/pin_manager.c: 117:     INLVLD = 0xFF;
  1247  000524  691D               	setf	29,b	;volatile
  1248                           
  1249                           ;mcc_generated_files/pin_manager.c: 118:     INLVLE = 0x0F;
  1250  000526  0E0F               	movlw	15
  1251  000528  6F25               	movwf	37,b	;volatile
  1252                           
  1253                           ;mcc_generated_files/pin_manager.c: 127:     CLCIN0PPS = 0x00;
  1254  00052A  0E00               	movlw	0
  1255  00052C  010E               	movlb	14	; () banked
  1256  00052E  6F1F               	movwf	31,b	;volatile
  1257                           
  1258                           ;mcc_generated_files/pin_manager.c: 128:     RA3PPS = 0x15;
  1259  000530  0E15               	movlw	21
  1260  000532  6FE5               	movwf	229,b	;volatile
  1261                           
  1262                           ;mcc_generated_files/pin_manager.c: 129:     T4INPPS = 0x15;
  1263  000534  0E15               	movlw	21
  1264  000536  6FA7               	movwf	167,b	;volatile
  1265  000538                     
  1266                           ; BSR set to: 14
  1267  000538  0012               	return		;funcret
  1268  00053A                     __end_of_PIN_MANAGER_Initialize:
  1269                           	callstack 0
  1270                           
  1271 ;; *************** function _OSCILLATOR_Initialize *****************
  1272 ;; Defined at:
  1273 ;;		line 71 in file "mcc_generated_files/mcc.c"
  1274 ;; Parameters:    Size  Location     Type
  1275 ;;		None
  1276 ;; Auto vars:     Size  Location     Type
  1277 ;;		None
  1278 ;; Return value:  Size  Location     Type
  1279 ;;                  1    wreg      void 
  1280 ;; Registers used:
  1281 ;;		wreg, status,2
  1282 ;; Tracked objects:
  1283 ;;		On entry : 0/0
  1284 ;;		On exit  : 0/0
  1285 ;;		Unchanged: 0/0
  1286 ;; Data sizes:     COMRAM   BANK0   BANK1   BANK2   BANK3   BANK4   BANK5   BANK6   BANK7   BANK8   BANK9  BANK10  BANK1
      +1  BANK12  BANK13  BANK14
  1287 ;;      Params:         0       0       0       0       0       0       0       0       0       0       0       0       
      +0       0       0       0
  1288 ;;      Locals:         0       0       0       0       0       0       0       0       0       0       0       0       
      +0       0       0       0
  1289 ;;      Temps:          0       0       0       0       0       0       0       0       0       0       0       0       
      +0       0       0       0
  1290 ;;      Totals:         0       0       0       0       0       0       0       0       0       0       0       0       
      +0       0       0       0
  1291 ;;Total ram usage:        0 bytes
  1292 ;; Hardware stack levels used:    1
  1293 ;; Hardware stack levels required when called:    3
  1294 ;; This function calls:
  1295 ;;		Nothing
  1296 ;; This function is called by:
  1297 ;;		_SYSTEM_Initialize
  1298 ;; This function uses a non-reentrant model
  1299 ;;
  1300                           
  1301                           	psect	text11
  1302  0008B6                     __ptext11:
  1303                           	callstack 0
  1304  0008B6                     _OSCILLATOR_Initialize:
  1305                           	callstack 26
  1306  0008B6                     
  1307                           ;mcc_generated_files/mcc.c: 74:     OSCCON1 = 0x60;
  1308  0008B6  0E60               	movlw	96
  1309  0008B8  010E               	movlb	14	; () banked
  1310  0008BA  6FD3               	movwf	211,b	;volatile
  1311                           
  1312                           ;mcc_generated_files/mcc.c: 76:     OSCCON3 = 0x00;
  1313  0008BC  0E00               	movlw	0
  1314  0008BE  6FD5               	movwf	213,b	;volatile
  1315                           
  1316                           ;mcc_generated_files/mcc.c: 78:     OSCEN = 0x00;
  1317  0008C0  0E00               	movlw	0
  1318  0008C2  6FD7               	movwf	215,b	;volatile
  1319                           
  1320                           ;mcc_generated_files/mcc.c: 80:     OSCFRQ = 0x06;
  1321  0008C4  0E06               	movlw	6
  1322  0008C6  6FD9               	movwf	217,b	;volatile
  1323                           
  1324                           ;mcc_generated_files/mcc.c: 82:     OSCTUNE = 0x00;
  1325  0008C8  0E00               	movlw	0
  1326  0008CA  6FD8               	movwf	216,b	;volatile
  1327  0008CC                     
  1328                           ; BSR set to: 14
  1329  0008CC  0012               	return		;funcret
  1330  0008CE                     __end_of_OSCILLATOR_Initialize:
  1331                           	callstack 0
  1332                           
  1333 ;; *************** function _INTERRUPT_Initialize *****************
  1334 ;; Defined at:
  1335 ;;		line 52 in file "mcc_generated_files/interrupt_manager.c"
  1336 ;; Parameters:    Size  Location     Type
  1337 ;;		None
  1338 ;; Auto vars:     Size  Location     Type
  1339 ;;		None
  1340 ;; Return value:  Size  Location     Type
  1341 ;;                  1    wreg      void 
  1342 ;; Registers used:
  1343 ;;		None
  1344 ;; Tracked objects:
  1345 ;;		On entry : 0/0
  1346 ;;		On exit  : 0/0
  1347 ;;		Unchanged: 0/0
  1348 ;; Data sizes:     COMRAM   BANK0   BANK1   BANK2   BANK3   BANK4   BANK5   BANK6   BANK7   BANK8   BANK9  BANK10  BANK1
      +1  BANK12  BANK13  BANK14
  1349 ;;      Params:         0       0       0       0       0       0       0       0       0       0       0       0       
      +0       0       0       0
  1350 ;;      Locals:         0       0       0       0       0       0       0       0       0       0       0       0       
      +0       0       0       0
  1351 ;;      Temps:          0       0       0       0       0       0       0       0       0       0       0       0       
      +0       0       0       0
  1352 ;;      Totals:         0       0       0       0       0       0       0       0       0       0       0       0       
      +0       0       0       0
  1353 ;;Total ram usage:        0 bytes
  1354 ;; Hardware stack levels used:    1
  1355 ;; Hardware stack levels required when called:    3
  1356 ;; This function calls:
  1357 ;;		Nothing
  1358 ;; This function is called by:
  1359 ;;		_SYSTEM_Initialize
  1360 ;; This function uses a non-reentrant model
  1361 ;;
  1362                           
  1363                           	psect	text12
  1364  000976                     __ptext12:
  1365                           	callstack 0
  1366  000976                     _INTERRUPT_Initialize:
  1367                           	callstack 26
  1368  000976                     
  1369                           ;mcc_generated_files/interrupt_manager.c: 55:     INTCONbits.IPEN = 0;
  1370  000976  9AF2               	bcf	242,5,c	;volatile
  1371  000978  0012               	return		;funcret
  1372  00097A                     __end_of_INTERRUPT_Initialize:
  1373                           	callstack 0
  1374                           
  1375 ;; *************** function _DSM_Initialize *****************
  1376 ;; Defined at:
  1377 ;;		line 58 in file "mcc_generated_files/dsm.c"
  1378 ;; Parameters:    Size  Location     Type
  1379 ;;		None
  1380 ;; Auto vars:     Size  Location     Type
  1381 ;;		None
  1382 ;; Return value:  Size  Location     Type
  1383 ;;                  1    wreg      void 
  1384 ;; Registers used:
  1385 ;;		wreg, status,2
  1386 ;; Tracked objects:
  1387 ;;		On entry : 0/0
  1388 ;;		On exit  : 0/0
  1389 ;;		Unchanged: 0/0
  1390 ;; Data sizes:     COMRAM   BANK0   BANK1   BANK2   BANK3   BANK4   BANK5   BANK6   BANK7   BANK8   BANK9  BANK10  BANK1
      +1  BANK12  BANK13  BANK14
  1391 ;;      Params:         0       0       0       0       0       0       0       0       0       0       0       0       
      +0       0       0       0
  1392 ;;      Locals:         0       0       0       0       0       0       0       0       0       0       0       0       
      +0       0       0       0
  1393 ;;      Temps:          0       0       0       0       0       0       0       0       0       0       0       0       
      +0       0       0       0
  1394 ;;      Totals:         0       0       0       0       0       0       0       0       0       0       0       0       
      +0       0       0       0
  1395 ;;Total ram usage:        0 bytes
  1396 ;; Hardware stack levels used:    1
  1397 ;; Hardware stack levels required when called:    3
  1398 ;; This function calls:
  1399 ;;		Nothing
  1400 ;; This function is called by:
  1401 ;;		_SYSTEM_Initialize
  1402 ;; This function uses a non-reentrant model
  1403 ;;
  1404                           
  1405                           	psect	text13
  1406  00089A                     __ptext13:
  1407                           	callstack 0
  1408  00089A                     _DSM_Initialize:
  1409                           	callstack 26
  1410  00089A                     
  1411                           ;mcc_generated_files/dsm.c: 63:     MDCON0bits.MDOPOL = 0;
  1412  00089A  010F               	movlb	15	; () banked
  1413  00089C  994C               	bcf	76,4,b	;volatile
  1414                           
  1415                           ;mcc_generated_files/dsm.c: 66:     MDCON1bits.CLSYNC = 0;
  1416  00089E  914D               	bcf	77,0,b	;volatile
  1417                           
  1418                           ;mcc_generated_files/dsm.c: 69:     MDCON1bits.CLPOL = 0;
  1419  0008A0  934D               	bcf	77,1,b	;volatile
  1420                           
  1421                           ;mcc_generated_files/dsm.c: 72:     MDCON1bits.CHSYNC = 0;
  1422  0008A2  994D               	bcf	77,4,b	;volatile
  1423                           
  1424                           ;mcc_generated_files/dsm.c: 75:     MDCON1bits.CHPOL = 0;
  1425  0008A4  9B4D               	bcf	77,5,b	;volatile
  1426  0008A6                     
  1427                           ; BSR set to: 15
  1428                           ;mcc_generated_files/dsm.c: 78:     MDSRC = 0x01;
  1429  0008A6  0E01               	movlw	1
  1430  0008A8  6F4E               	movwf	78,b	;volatile
  1431                           
  1432                           ;mcc_generated_files/dsm.c: 81:     MDCARH = 0x06;
  1433  0008AA  0E06               	movlw	6
  1434  0008AC  6F50               	movwf	80,b	;volatile
  1435                           
  1436                           ;mcc_generated_files/dsm.c: 84:     MDCARL = 0x07;
  1437  0008AE  0E07               	movlw	7
  1438  0008B0  6F4F               	movwf	79,b	;volatile
  1439  0008B2                     
  1440                           ; BSR set to: 15
  1441                           ;mcc_generated_files/dsm.c: 87:     MDCON0bits.MDEN = 0;
  1442  0008B2  9F4C               	bcf	76,7,b	;volatile
  1443  0008B4                     
  1444                           ; BSR set to: 15
  1445  0008B4  0012               	return		;funcret
  1446  0008B6                     __end_of_DSM_Initialize:
  1447                           	callstack 0
  1448                           
  1449 ;; *************** function _CLC5_Initialize *****************
  1450 ;; Defined at:
  1451 ;;		line 60 in file "mcc_generated_files/clc5.c"
  1452 ;; Parameters:    Size  Location     Type
  1453 ;;		None
  1454 ;; Auto vars:     Size  Location     Type
  1455 ;;		None
  1456 ;; Return value:  Size  Location     Type
  1457 ;;                  1    wreg      void 
  1458 ;; Registers used:
  1459 ;;		wreg, status,2
  1460 ;; Tracked objects:
  1461 ;;		On entry : 0/0
  1462 ;;		On exit  : 0/0
  1463 ;;		Unchanged: 0/0
  1464 ;; Data sizes:     COMRAM   BANK0   BANK1   BANK2   BANK3   BANK4   BANK5   BANK6   BANK7   BANK8   BANK9  BANK10  BANK1
      +1  BANK12  BANK13  BANK14
  1465 ;;      Params:         0       0       0       0       0       0       0       0       0       0       0       0       
      +0       0       0       0
  1466 ;;      Locals:         0       0       0       0       0       0       0       0       0       0       0       0       
      +0       0       0       0
  1467 ;;      Temps:          0       0       0       0       0       0       0       0       0       0       0       0       
      +0       0       0       0
  1468 ;;      Totals:         0       0       0       0       0       0       0       0       0       0       0       0       
      +0       0       0       0
  1469 ;;Total ram usage:        0 bytes
  1470 ;; Hardware stack levels used:    1
  1471 ;; Hardware stack levels required when called:    3
  1472 ;; This function calls:
  1473 ;;		Nothing
  1474 ;; This function is called by:
  1475 ;;		_SYSTEM_Initialize
  1476 ;; This function uses a non-reentrant model
  1477 ;;
  1478                           
  1479                           	psect	text14
  1480  000732                     __ptext14:
  1481                           	callstack 0
  1482  000732                     _CLC5_Initialize:
  1483                           	callstack 26
  1484  000732                     
  1485                           ;mcc_generated_files/clc5.c: 65:     CLC5POL = 0x80;
  1486  000732  0E80               	movlw	128
  1487  000734  010E               	movlb	14	; () banked
  1488  000736  6F50               	movwf	80,b	;volatile
  1489                           
  1490                           ;mcc_generated_files/clc5.c: 67:     CLC5SEL0 = 0x11;
  1491  000738  0E11               	movlw	17
  1492  00073A  6F51               	movwf	81,b	;volatile
  1493                           
  1494                           ;mcc_generated_files/clc5.c: 69:     CLC5SEL1 = 0x25;
  1495  00073C  0E25               	movlw	37
  1496  00073E  6F52               	movwf	82,b	;volatile
  1497                           
  1498                           ;mcc_generated_files/clc5.c: 71:     CLC5SEL2 = 0x00;
  1499  000740  0E00               	movlw	0
  1500  000742  6F53               	movwf	83,b	;volatile
  1501                           
  1502                           ;mcc_generated_files/clc5.c: 73:     CLC5SEL3 = 0x00;
  1503  000744  0E00               	movlw	0
  1504  000746  6F54               	movwf	84,b	;volatile
  1505                           
  1506                           ;mcc_generated_files/clc5.c: 75:     CLC5GLS0 = 0x02;
  1507  000748  0E02               	movlw	2
  1508  00074A  6F55               	movwf	85,b	;volatile
  1509                           
  1510                           ;mcc_generated_files/clc5.c: 77:     CLC5GLS1 = 0x08;
  1511  00074C  0E08               	movlw	8
  1512  00074E  6F56               	movwf	86,b	;volatile
  1513                           
  1514                           ;mcc_generated_files/clc5.c: 79:     CLC5GLS2 = 0x00;
  1515  000750  0E00               	movlw	0
  1516  000752  6F57               	movwf	87,b	;volatile
  1517                           
  1518                           ;mcc_generated_files/clc5.c: 81:     CLC5GLS3 = 0x00;
  1519  000754  0E00               	movlw	0
  1520  000756  6F58               	movwf	88,b	;volatile
  1521                           
  1522                           ;mcc_generated_files/clc5.c: 83:     CLC5CON = 0x14;
  1523  000758  0E14               	movlw	20
  1524  00075A  6F4F               	movwf	79,b	;volatile
  1525  00075C                     
  1526                           ; BSR set to: 14
  1527                           ;mcc_generated_files/clc5.c: 86:     PIR6bits.CLC5IF = 0;
  1528  00075C  99CB               	bcf	203,4,b	;volatile
  1529  00075E                     
  1530                           ; BSR set to: 14
  1531                           ;mcc_generated_files/clc5.c: 88:     PIE6bits.CLC5IE = 1;
  1532  00075E  89C3               	bsf	195,4,b	;volatile
  1533  000760                     
  1534                           ; BSR set to: 14
  1535  000760  0012               	return		;funcret
  1536  000762                     __end_of_CLC5_Initialize:
  1537                           	callstack 0
  1538                           
  1539 ;; *************** function _CLC4_Initialize *****************
  1540 ;; Defined at:
  1541 ;;		line 58 in file "mcc_generated_files/clc4.c"
  1542 ;; Parameters:    Size  Location     Type
  1543 ;;		None
  1544 ;; Auto vars:     Size  Location     Type
  1545 ;;		None
  1546 ;; Return value:  Size  Location     Type
  1547 ;;                  1    wreg      void 
  1548 ;; Registers used:
  1549 ;;		wreg, status,2
  1550 ;; Tracked objects:
  1551 ;;		On entry : 0/0
  1552 ;;		On exit  : 0/0
  1553 ;;		Unchanged: 0/0
  1554 ;; Data sizes:     COMRAM   BANK0   BANK1   BANK2   BANK3   BANK4   BANK5   BANK6   BANK7   BANK8   BANK9  BANK10  BANK1
      +1  BANK12  BANK13  BANK14
  1555 ;;      Params:         0       0       0       0       0       0       0       0       0       0       0       0       
      +0       0       0       0
  1556 ;;      Locals:         0       0       0       0       0       0       0       0       0       0       0       0       
      +0       0       0       0
  1557 ;;      Temps:          0       0       0       0       0       0       0       0       0       0       0       0       
      +0       0       0       0
  1558 ;;      Totals:         0       0       0       0       0       0       0       0       0       0       0       0       
      +0       0       0       0
  1559 ;;Total ram usage:        0 bytes
  1560 ;; Hardware stack levels used:    1
  1561 ;; Hardware stack levels required when called:    3
  1562 ;; This function calls:
  1563 ;;		Nothing
  1564 ;; This function is called by:
  1565 ;;		_SYSTEM_Initialize
  1566 ;; This function uses a non-reentrant model
  1567 ;;
  1568                           
  1569                           	psect	text15
  1570  000792                     __ptext15:
  1571                           	callstack 0
  1572  000792                     _CLC4_Initialize:
  1573                           	callstack 26
  1574  000792                     
  1575                           ;mcc_generated_files/clc4.c: 63:     CLC4POL = 0x0F;
  1576  000792  0E0F               	movlw	15
  1577  000794  010E               	movlb	14	; () banked
  1578  000796  6F46               	movwf	70,b	;volatile
  1579                           
  1580                           ;mcc_generated_files/clc4.c: 65:     CLC4SEL0 = 0x21;
  1581  000798  0E21               	movlw	33
  1582  00079A  6F47               	movwf	71,b	;volatile
  1583                           
  1584                           ;mcc_generated_files/clc4.c: 67:     CLC4SEL1 = 0x22;
  1585  00079C  0E22               	movlw	34
  1586  00079E  6F48               	movwf	72,b	;volatile
  1587                           
  1588                           ;mcc_generated_files/clc4.c: 69:     CLC4SEL2 = 0x23;
  1589  0007A0  0E23               	movlw	35
  1590  0007A2  6F49               	movwf	73,b	;volatile
  1591                           
  1592                           ;mcc_generated_files/clc4.c: 71:     CLC4SEL3 = 0x00;
  1593  0007A4  0E00               	movlw	0
  1594  0007A6  6F4A               	movwf	74,b	;volatile
  1595                           
  1596                           ;mcc_generated_files/clc4.c: 73:     CLC4GLS0 = 0x02;
  1597  0007A8  0E02               	movlw	2
  1598  0007AA  6F4B               	movwf	75,b	;volatile
  1599                           
  1600                           ;mcc_generated_files/clc4.c: 75:     CLC4GLS1 = 0x08;
  1601  0007AC  0E08               	movlw	8
  1602  0007AE  6F4C               	movwf	76,b	;volatile
  1603                           
  1604                           ;mcc_generated_files/clc4.c: 77:     CLC4GLS2 = 0x20;
  1605  0007B0  0E20               	movlw	32
  1606  0007B2  6F4D               	movwf	77,b	;volatile
  1607                           
  1608                           ;mcc_generated_files/clc4.c: 79:     CLC4GLS3 = 0x00;
  1609  0007B4  0E00               	movlw	0
  1610  0007B6  6F4E               	movwf	78,b	;volatile
  1611                           
  1612                           ;mcc_generated_files/clc4.c: 81:     CLC4CON = 0x02;
  1613  0007B8  0E02               	movlw	2
  1614  0007BA  6F45               	movwf	69,b	;volatile
  1615  0007BC                     
  1616                           ; BSR set to: 14
  1617  0007BC  0012               	return		;funcret
  1618  0007BE                     __end_of_CLC4_Initialize:
  1619                           	callstack 0
  1620                           
  1621 ;; *************** function _CLC3_Initialize *****************
  1622 ;; Defined at:
  1623 ;;		line 58 in file "mcc_generated_files/clc3.c"
  1624 ;; Parameters:    Size  Location     Type
  1625 ;;		None
  1626 ;; Auto vars:     Size  Location     Type
  1627 ;;		None
  1628 ;; Return value:  Size  Location     Type
  1629 ;;                  1    wreg      void 
  1630 ;; Registers used:
  1631 ;;		wreg, status,2
  1632 ;; Tracked objects:
  1633 ;;		On entry : 0/0
  1634 ;;		On exit  : 0/0
  1635 ;;		Unchanged: 0/0
  1636 ;; Data sizes:     COMRAM   BANK0   BANK1   BANK2   BANK3   BANK4   BANK5   BANK6   BANK7   BANK8   BANK9  BANK10  BANK1
      +1  BANK12  BANK13  BANK14
  1637 ;;      Params:         0       0       0       0       0       0       0       0       0       0       0       0       
      +0       0       0       0
  1638 ;;      Locals:         0       0       0       0       0       0       0       0       0       0       0       0       
      +0       0       0       0
  1639 ;;      Temps:          0       0       0       0       0       0       0       0       0       0       0       0       
      +0       0       0       0
  1640 ;;      Totals:         0       0       0       0       0       0       0       0       0       0       0       0       
      +0       0       0       0
  1641 ;;Total ram usage:        0 bytes
  1642 ;; Hardware stack levels used:    1
  1643 ;; Hardware stack levels required when called:    3
  1644 ;; This function calls:
  1645 ;;		Nothing
  1646 ;; This function is called by:
  1647 ;;		_SYSTEM_Initialize
  1648 ;; This function uses a non-reentrant model
  1649 ;;
  1650                           
  1651                           	psect	text16
  1652  0007BE                     __ptext16:
  1653                           	callstack 0
  1654  0007BE                     _CLC3_Initialize:
  1655                           	callstack 26
  1656  0007BE                     
  1657                           ;mcc_generated_files/clc3.c: 63:     CLC3POL = 0x00;
  1658  0007BE  0E00               	movlw	0
  1659  0007C0  010E               	movlb	14	; () banked
  1660  0007C2  6F3C               	movwf	60,b	;volatile
  1661                           
  1662                           ;mcc_generated_files/clc3.c: 65:     CLC3SEL0 = 0x11;
  1663  0007C4  0E11               	movlw	17
  1664  0007C6  6F3D               	movwf	61,b	;volatile
  1665                           
  1666                           ;mcc_generated_files/clc3.c: 67:     CLC3SEL1 = 0x22;
  1667  0007C8  0E22               	movlw	34
  1668  0007CA  6F3E               	movwf	62,b	;volatile
  1669                           
  1670                           ;mcc_generated_files/clc3.c: 69:     CLC3SEL2 = 0x00;
  1671  0007CC  0E00               	movlw	0
  1672  0007CE  6F3F               	movwf	63,b	;volatile
  1673                           
  1674                           ;mcc_generated_files/clc3.c: 71:     CLC3SEL3 = 0x00;
  1675  0007D0  0E00               	movlw	0
  1676  0007D2  6F40               	movwf	64,b	;volatile
  1677                           
  1678                           ;mcc_generated_files/clc3.c: 73:     CLC3GLS0 = 0x02;
  1679  0007D4  0E02               	movlw	2
  1680  0007D6  6F41               	movwf	65,b	;volatile
  1681                           
  1682                           ;mcc_generated_files/clc3.c: 75:     CLC3GLS1 = 0x08;
  1683  0007D8  0E08               	movlw	8
  1684  0007DA  6F42               	movwf	66,b	;volatile
  1685                           
  1686                           ;mcc_generated_files/clc3.c: 77:     CLC3GLS2 = 0x00;
  1687  0007DC  0E00               	movlw	0
  1688  0007DE  6F43               	movwf	67,b	;volatile
  1689                           
  1690                           ;mcc_generated_files/clc3.c: 79:     CLC3GLS3 = 0x00;
  1691  0007E0  0E00               	movlw	0
  1692  0007E2  6F44               	movwf	68,b	;volatile
  1693                           
  1694                           ;mcc_generated_files/clc3.c: 81:     CLC3CON = 0x04;
  1695  0007E4  0E04               	movlw	4
  1696  0007E6  6F3B               	movwf	59,b	;volatile
  1697  0007E8                     
  1698                           ; BSR set to: 14
  1699  0007E8  0012               	return		;funcret
  1700  0007EA                     __end_of_CLC3_Initialize:
  1701                           	callstack 0
  1702                           
  1703 ;; *************** function _CLC2_Initialize *****************
  1704 ;; Defined at:
  1705 ;;		line 58 in file "mcc_generated_files/clc2.c"
  1706 ;; Parameters:    Size  Location     Type
  1707 ;;		None
  1708 ;; Auto vars:     Size  Location     Type
  1709 ;;		None
  1710 ;; Return value:  Size  Location     Type
  1711 ;;                  1    wreg      void 
  1712 ;; Registers used:
  1713 ;;		wreg, status,2
  1714 ;; Tracked objects:
  1715 ;;		On entry : 0/0
  1716 ;;		On exit  : 0/0
  1717 ;;		Unchanged: 0/0
  1718 ;; Data sizes:     COMRAM   BANK0   BANK1   BANK2   BANK3   BANK4   BANK5   BANK6   BANK7   BANK8   BANK9  BANK10  BANK1
      +1  BANK12  BANK13  BANK14
  1719 ;;      Params:         0       0       0       0       0       0       0       0       0       0       0       0       
      +0       0       0       0
  1720 ;;      Locals:         0       0       0       0       0       0       0       0       0       0       0       0       
      +0       0       0       0
  1721 ;;      Temps:          0       0       0       0       0       0       0       0       0       0       0       0       
      +0       0       0       0
  1722 ;;      Totals:         0       0       0       0       0       0       0       0       0       0       0       0       
      +0       0       0       0
  1723 ;;Total ram usage:        0 bytes
  1724 ;; Hardware stack levels used:    1
  1725 ;; Hardware stack levels required when called:    3
  1726 ;; This function calls:
  1727 ;;		Nothing
  1728 ;; This function is called by:
  1729 ;;		_SYSTEM_Initialize
  1730 ;; This function uses a non-reentrant model
  1731 ;;
  1732                           
  1733                           	psect	text17
  1734  0007EA                     __ptext17:
  1735                           	callstack 0
  1736  0007EA                     _CLC2_Initialize:
  1737                           	callstack 26
  1738  0007EA                     
  1739                           ;mcc_generated_files/clc2.c: 63:     CLC2POL = 0x00;
  1740  0007EA  0E00               	movlw	0
  1741  0007EC  010E               	movlb	14	; () banked
  1742  0007EE  6F32               	movwf	50,b	;volatile
  1743                           
  1744                           ;mcc_generated_files/clc2.c: 65:     CLC2SEL0 = 0x11;
  1745  0007F0  0E11               	movlw	17
  1746  0007F2  6F33               	movwf	51,b	;volatile
  1747                           
  1748                           ;mcc_generated_files/clc2.c: 67:     CLC2SEL1 = 0x21;
  1749  0007F4  0E21               	movlw	33
  1750  0007F6  6F34               	movwf	52,b	;volatile
  1751                           
  1752                           ;mcc_generated_files/clc2.c: 69:     CLC2SEL2 = 0x00;
  1753  0007F8  0E00               	movlw	0
  1754  0007FA  6F35               	movwf	53,b	;volatile
  1755                           
  1756                           ;mcc_generated_files/clc2.c: 71:     CLC2SEL3 = 0x00;
  1757  0007FC  0E00               	movlw	0
  1758  0007FE  6F36               	movwf	54,b	;volatile
  1759                           
  1760                           ;mcc_generated_files/clc2.c: 73:     CLC2GLS0 = 0x02;
  1761  000800  0E02               	movlw	2
  1762  000802  6F37               	movwf	55,b	;volatile
  1763                           
  1764                           ;mcc_generated_files/clc2.c: 75:     CLC2GLS1 = 0x08;
  1765  000804  0E08               	movlw	8
  1766  000806  6F38               	movwf	56,b	;volatile
  1767                           
  1768                           ;mcc_generated_files/clc2.c: 77:     CLC2GLS2 = 0x00;
  1769  000808  0E00               	movlw	0
  1770  00080A  6F39               	movwf	57,b	;volatile
  1771                           
  1772                           ;mcc_generated_files/clc2.c: 79:     CLC2GLS3 = 0x00;
  1773  00080C  0E00               	movlw	0
  1774  00080E  6F3A               	movwf	58,b	;volatile
  1775                           
  1776                           ;mcc_generated_files/clc2.c: 81:     CLC2CON = 0x04;
  1777  000810  0E04               	movlw	4
  1778  000812  6F31               	movwf	49,b	;volatile
  1779  000814                     
  1780                           ; BSR set to: 14
  1781  000814  0012               	return		;funcret
  1782  000816                     __end_of_CLC2_Initialize:
  1783                           	callstack 0
  1784                           
  1785 ;; *************** function _CLC1_Initialize *****************
  1786 ;; Defined at:
  1787 ;;		line 61 in file "mcc_generated_files/clc1.c"
  1788 ;; Parameters:    Size  Location     Type
  1789 ;;		None
  1790 ;; Auto vars:     Size  Location     Type
  1791 ;;		None
  1792 ;; Return value:  Size  Location     Type
  1793 ;;                  1    wreg      void 
  1794 ;; Registers used:
  1795 ;;		wreg, status,2
  1796 ;; Tracked objects:
  1797 ;;		On entry : 0/0
  1798 ;;		On exit  : 0/0
  1799 ;;		Unchanged: 0/0
  1800 ;; Data sizes:     COMRAM   BANK0   BANK1   BANK2   BANK3   BANK4   BANK5   BANK6   BANK7   BANK8   BANK9  BANK10  BANK1
      +1  BANK12  BANK13  BANK14
  1801 ;;      Params:         0       0       0       0       0       0       0       0       0       0       0       0       
      +0       0       0       0
  1802 ;;      Locals:         0       0       0       0       0       0       0       0       0       0       0       0       
      +0       0       0       0
  1803 ;;      Temps:          0       0       0       0       0       0       0       0       0       0       0       0       
      +0       0       0       0
  1804 ;;      Totals:         0       0       0       0       0       0       0       0       0       0       0       0       
      +0       0       0       0
  1805 ;;Total ram usage:        0 bytes
  1806 ;; Hardware stack levels used:    1
  1807 ;; Hardware stack levels required when called:    3
  1808 ;; This function calls:
  1809 ;;		Nothing
  1810 ;; This function is called by:
  1811 ;;		_SYSTEM_Initialize
  1812 ;; This function uses a non-reentrant model
  1813 ;;
  1814                           
  1815                           	psect	text18
  1816  000762                     __ptext18:
  1817                           	callstack 0
  1818  000762                     _CLC1_Initialize:
  1819                           	callstack 26
  1820  000762                     
  1821                           ;mcc_generated_files/clc1.c: 66:     CLC1POL = 0x00;
  1822  000762  0E00               	movlw	0
  1823  000764  010E               	movlb	14	; () banked
  1824  000766  6F28               	movwf	40,b	;volatile
  1825                           
  1826                           ;mcc_generated_files/clc1.c: 68:     CLC1SEL0 = 0x11;
  1827  000768  0E11               	movlw	17
  1828  00076A  6F29               	movwf	41,b	;volatile
  1829                           
  1830                           ;mcc_generated_files/clc1.c: 70:     CLC1SEL1 = 0x24;
  1831  00076C  0E24               	movlw	36
  1832  00076E  6F2A               	movwf	42,b	;volatile
  1833                           
  1834                           ;mcc_generated_files/clc1.c: 72:     CLC1SEL2 = 0x00;
  1835  000770  0E00               	movlw	0
  1836  000772  6F2B               	movwf	43,b	;volatile
  1837                           
  1838                           ;mcc_generated_files/clc1.c: 74:     CLC1SEL3 = 0x00;
  1839  000774  0E00               	movlw	0
  1840  000776  6F2C               	movwf	44,b	;volatile
  1841                           
  1842                           ;mcc_generated_files/clc1.c: 76:     CLC1GLS0 = 0x02;
  1843  000778  0E02               	movlw	2
  1844  00077A  6F2D               	movwf	45,b	;volatile
  1845                           
  1846                           ;mcc_generated_files/clc1.c: 78:     CLC1GLS1 = 0x08;
  1847  00077C  0E08               	movlw	8
  1848  00077E  6F2E               	movwf	46,b	;volatile
  1849                           
  1850                           ;mcc_generated_files/clc1.c: 80:     CLC1GLS2 = 0x00;
  1851  000780  0E00               	movlw	0
  1852  000782  6F2F               	movwf	47,b	;volatile
  1853                           
  1854                           ;mcc_generated_files/clc1.c: 82:     CLC1GLS3 = 0x00;
  1855  000784  0E00               	movlw	0
  1856  000786  6F30               	movwf	48,b	;volatile
  1857                           
  1858                           ;mcc_generated_files/clc1.c: 84:     CLC1CON = 0x14;
  1859  000788  0E14               	movlw	20
  1860  00078A  6F27               	movwf	39,b	;volatile
  1861  00078C                     
  1862                           ; BSR set to: 14
  1863                           ;mcc_generated_files/clc1.c: 87:     PIR5bits.CLC1IF = 0;
  1864  00078C  99CA               	bcf	202,4,b	;volatile
  1865  00078E                     
  1866                           ; BSR set to: 14
  1867                           ;mcc_generated_files/clc1.c: 89:     PIE5bits.CLC1IE = 1;
  1868  00078E  89C2               	bsf	194,4,b	;volatile
  1869  000790                     
  1870                           ; BSR set to: 14
  1871  000790  0012               	return		;funcret
  1872  000792                     __end_of_CLC1_Initialize:
  1873                           	callstack 0
  1874                           
  1875 ;; *************** function _ApplicationTask *****************
  1876 ;; Defined at:
  1877 ;;		line 37 in file "application.c"
  1878 ;; Parameters:    Size  Location     Type
  1879 ;;		None
  1880 ;; Auto vars:     Size  Location     Type
  1881 ;;  retStatus       1   14[COMRAM] unsigned char 
  1882 ;; Return value:  Size  Location     Type
  1883 ;;                  1    wreg      void 
  1884 ;; Registers used:
  1885 ;;		wreg, status,2, status,0, cstack
  1886 ;; Tracked objects:
  1887 ;;		On entry : 0/0
  1888 ;;		On exit  : 0/0
  1889 ;;		Unchanged: 0/0
  1890 ;; Data sizes:     COMRAM   BANK0   BANK1   BANK2   BANK3   BANK4   BANK5   BANK6   BANK7   BANK8   BANK9  BANK10  BANK1
      +1  BANK12  BANK13  BANK14
  1891 ;;      Params:         0       0       0       0       0       0       0       0       0       0       0       0       
      +0       0       0       0
  1892 ;;      Locals:         1       0       0       0       0       0       0       0       0       0       0       0       
      +0       0       0       0
  1893 ;;      Temps:          2       0       0       0       0       0       0       0       0       0       0       0       
      +0       0       0       0
  1894 ;;      Totals:         3       0       0       0       0       0       0       0       0       0       0       0       
      +0       0       0       0
  1895 ;;Total ram usage:        3 bytes
  1896 ;; Hardware stack levels used:    1
  1897 ;; Hardware stack levels required when called:    5
  1898 ;; This function calls:
  1899 ;;		_ClearButton
  1900 ;;		_ClearEvent
  1901 ;;		_GetButton
  1902 ;;		_GetEvent
  1903 ;;		_PrepareNewCMD
  1904 ;;		_Prepare_IR_NEC_Data
  1905 ;;		_Reverse
  1906 ;;		_SendIR_Frame
  1907 ;; This function is called by:
  1908 ;;		_main
  1909 ;; This function uses a non-reentrant model
  1910 ;;
  1911                           
  1912                           	psect	text19
  1913  000346                     __ptext19:
  1914                           	callstack 0
  1915  000346                     _ApplicationTask:
  1916                           	callstack 25
  1917  000346                     
  1918                           ;application.c: 45:     switch(state) {
  1919  000346  EF39  F002         	goto	l2354
  1920  00034A                     l2302:
  1921                           
  1922                           ;application.c: 47:         if(GetEvent())
  1923  00034A  ECC1  F004         	call	_GetEvent	;wreg free
  1924  00034E  0900               	iorlw	0
  1925  000350  B4D8               	btfsc	status,2,c
  1926  000352  EFAD  F001         	goto	u521
  1927  000356  EFAF  F001         	goto	u520
  1928  00035A                     u521:
  1929  00035A  EF5A  F002         	goto	l736
  1930  00035E                     u520:
  1931  00035E                     
  1932                           ;application.c: 48:         {;application.c: 49:             button = GetButton();
  1933  00035E  ECC3  F004         	call	_GetButton	;wreg free
  1934  000362  6E10               	movwf	ApplicationTask@button^0,c
  1935  000364                     
  1936                           ;application.c: 50:             if(button < MAX_KEYS)
  1937  000364  0E02               	movlw	2
  1938  000366  6010               	cpfslt	ApplicationTask@button^0,c
  1939  000368  EFB8  F001         	goto	u531
  1940  00036C  EFBA  F001         	goto	u530
  1941  000370                     u531:
  1942  000370  EFBC  F001         	goto	l2310
  1943  000374                     u530:
  1944  000374                     
  1945                           ;application.c: 51:             {;application.c: 52:                 state = PREPARE_CMD
      +                          ;
  1946  000374  0E01               	movlw	1
  1947  000376  6E11               	movwf	ApplicationTask@state^0,c
  1948  000378                     l2310:
  1949                           
  1950                           ;application.c: 54:             ClearButton();
  1951  000378  ECB8  F004         	call	_ClearButton	;wreg free
  1952  00037C                     
  1953                           ;application.c: 55:             ClearEvent();
  1954  00037C  ECB5  F004         	call	_ClearEvent	;wreg free
  1955                           
  1956                           ;application.c: 56:         }
  1957  000380  EF5A  F002         	goto	l736
  1958  000384                     l2314:
  1959                           
  1960                           ;application.c: 63:         if(button == SW1)
  1961  000384  0410               	decf	ApplicationTask@button^0,w,c
  1962  000386  A4D8               	btfss	status,2,c
  1963  000388  EFC8  F001         	goto	u541
  1964  00038C  EFCA  F001         	goto	u540
  1965  000390                     u541:
  1966  000390  EFD8  F001         	goto	l2320
  1967  000394                     u540:
  1968  000394  9086               	bcf	134,0,c	;volatile
  1969  000396                     
  1970                           ;application.c: 66:           _delay((unsigned long)((200)*(32000000/4000.0)));
  1971  000396  0E09               	movlw	9
  1972  000398  6E23               	movwf	(??_ApplicationTask+1)^0,c
  1973  00039A  0E1E               	movlw	30
  1974  00039C  6E22               	movwf	??_ApplicationTask^0,c
  1975  00039E  0EE4               	movlw	228
  1976  0003A0                     u687:
  1977  0003A0  2EE8               	decfsz	wreg,f,c
  1978  0003A2  D7FE               	bra	u687
  1979  0003A4  2E22               	decfsz	??_ApplicationTask^0,f,c
  1980  0003A6  D7FC               	bra	u687
  1981  0003A8  2E23               	decfsz	(??_ApplicationTask+1)^0,f,c
  1982  0003AA  D7FA               	bra	u687
  1983  0003AC  D000               	nop2	
  1984  0003AE  8086               	bsf	134,0,c	;volatile
  1985  0003B0                     l2320:
  1986                           
  1987                           ;application.c: 73:         command = PrepareNewCMD(button);
  1988  0003B0  5010               	movf	ApplicationTask@button^0,w,c
  1989  0003B2  EC32  F003         	call	_PrepareNewCMD
  1990  0003B6  6E0F               	movwf	ApplicationTask@command^0,c
  1991  0003B8                     
  1992                           ;application.c: 74:         if(command != 0)
  1993  0003B8  500F               	movf	ApplicationTask@command^0,w,c
  1994  0003BA  B4D8               	btfsc	status,2,c
  1995  0003BC  EFE2  F001         	goto	u551
  1996  0003C0  EFE4  F001         	goto	u550
  1997  0003C4                     u551:
  1998  0003C4  EFEC  F001         	goto	l2328
  1999  0003C8                     u550:
  2000  0003C8                     
  2001                           ;application.c: 75:         {;application.c: 78:             command = Reverse (command)
      +                          ;
  2002  0003C8  500F               	movf	ApplicationTask@command^0,w,c
  2003  0003CA  ECCD  F002         	call	_Reverse
  2004  0003CE  6E0F               	movwf	ApplicationTask@command^0,c
  2005  0003D0                     
  2006                           ;application.c: 79:             state = PREPARE_IR_NEC_DATA;
  2007  0003D0  0E02               	movlw	2
  2008  0003D2  6E11               	movwf	ApplicationTask@state^0,c
  2009                           
  2010                           ;application.c: 80:         }
  2011  0003D4  EFEE  F001         	goto	l726
  2012  0003D8                     l2328:
  2013                           
  2014                           ;application.c: 82:         {;application.c: 83:             state = GET_EVENT;
  2015  0003D8  0E00               	movlw	0
  2016  0003DA  6E11               	movwf	ApplicationTask@state^0,c
  2017  0003DC                     l726:
  2018                           
  2019                           ;application.c: 85:         button = NO_KEY;
  2020  0003DC  0E00               	movlw	0
  2021  0003DE  6E10               	movwf	ApplicationTask@button^0,c
  2022                           
  2023                           ;application.c: 86:     break;
  2024  0003E0  EF5A  F002         	goto	l736
  2025  0003E4                     l2330:
  2026                           
  2027                           ;application.c: 90:         rxAddress=Reverse((uint8_t)(uint8_t)0xAA);
  2028  0003E4  0EAA               	movlw	170
  2029  0003E6  ECCD  F002         	call	_Reverse
  2030  0003EA  6E0E               	movwf	ApplicationTask@rxAddress^0,c
  2031                           
  2032                           ;application.c: 91:         data = Prepare_IR_NEC_Data(rxAddress,command);
  2033  0003EC  C00F  F018         	movff	ApplicationTask@command,Prepare_IR_NEC_Data@cmd
  2034  0003F0  500E               	movf	ApplicationTask@rxAddress^0,w,c
  2035  0003F2  EC9D  F002         	call	_Prepare_IR_NEC_Data
  2036  0003F6  C018  F005         	movff	?_Prepare_IR_NEC_Data,ApplicationTask@data
  2037  0003FA  C019  F006         	movff	?_Prepare_IR_NEC_Data+1,ApplicationTask@data+1
  2038  0003FE  C01A  F007         	movff	?_Prepare_IR_NEC_Data+2,ApplicationTask@data+2
  2039  000402  C01B  F008         	movff	?_Prepare_IR_NEC_Data+3,ApplicationTask@data+3
  2040  000406                     
  2041                           ;application.c: 92:         if(data != 0)
  2042  000406  5005               	movf	ApplicationTask@data^0,w,c
  2043  000408  1006               	iorwf	(ApplicationTask@data+1)^0,w,c
  2044  00040A  1007               	iorwf	(ApplicationTask@data+2)^0,w,c
  2045  00040C  1008               	iorwf	(ApplicationTask@data+3)^0,w,c
  2046  00040E  B4D8               	btfsc	status,2,c
  2047  000410  EF0C  F002         	goto	u561
  2048  000414  EF0E  F002         	goto	u560
  2049  000418                     u561:
  2050  000418  EF12  F002         	goto	l2336
  2051  00041C                     u560:
  2052  00041C                     
  2053                           ;application.c: 93:         {;application.c: 94:             state = SEND_DATA_OVER_IR;
  2054  00041C  0E03               	movlw	3
  2055  00041E  6E11               	movwf	ApplicationTask@state^0,c
  2056                           
  2057                           ;application.c: 95:         }
  2058  000420  EF5A  F002         	goto	l736
  2059  000424                     l2336:
  2060                           
  2061                           ;application.c: 97:         {;application.c: 98:             state = GET_EVENT;
  2062  000424  0E00               	movlw	0
  2063  000426  6E11               	movwf	ApplicationTask@state^0,c
  2064  000428  EF5A  F002         	goto	l736
  2065  00042C                     l2338:
  2066                           
  2067                           ;application.c: 102:         retStatus = SendIR_Frame(data,(uint8_t)31);
  2068  00042C  C005  F019         	movff	ApplicationTask@data,SendIR_Frame@IR_Data
  2069  000430  C006  F01A         	movff	ApplicationTask@data+1,SendIR_Frame@IR_Data+1
  2070  000434  C007  F01B         	movff	ApplicationTask@data+2,SendIR_Frame@IR_Data+2
  2071  000438  C008  F01C         	movff	ApplicationTask@data+3,SendIR_Frame@IR_Data+3
  2072  00043C  0E1F               	movlw	31
  2073  00043E  6E1D               	movwf	SendIR_Frame@numOfBitsToSend^0,c
  2074  000440  EC61  F000         	call	_SendIR_Frame	;wreg free
  2075  000444  6E24               	movwf	ApplicationTask@retStatus^0,c
  2076  000446                     
  2077                           ;application.c: 103:         if(retStatus == ERROR)
  2078  000446  2824               	incf	ApplicationTask@retStatus^0,w,c
  2079  000448  A4D8               	btfss	status,2,c
  2080  00044A  EF29  F002         	goto	u571
  2081  00044E  EF2B  F002         	goto	u570
  2082  000452                     u571:
  2083  000452  EF2F  F002         	goto	l2344
  2084  000456                     u570:
  2085  000456                     
  2086                           ;application.c: 104:         {;application.c: 105:             state = COMM_ERR;
  2087  000456  0E04               	movlw	4
  2088  000458  6E11               	movwf	ApplicationTask@state^0,c
  2089                           
  2090                           ;application.c: 106:         }
  2091  00045A  EF5A  F002         	goto	l736
  2092  00045E                     l2344:
  2093  00045E  0424               	decf	ApplicationTask@retStatus^0,w,c
  2094  000460  A4D8               	btfss	status,2,c
  2095  000462  EF35  F002         	goto	u581
  2096  000466  EF37  F002         	goto	u580
  2097  00046A                     u581:
  2098  00046A  EF5A  F002         	goto	l736
  2099  00046E                     u580:
  2100  00046E  EF12  F002         	goto	l2336
  2101  000472                     l2354:
  2102  000472  5011               	movf	ApplicationTask@state^0,w,c
  2103  000474  6E22               	movwf	??_ApplicationTask^0,c
  2104  000476  6A23               	clrf	(??_ApplicationTask+1)^0,c
  2105                           
  2106                           ; Switch on 2 bytes has been partitioned into a top level switch of size 1, and 1 sub-sw
      +                          itches
  2107                           ; Switch size 1, requested type "simple"
  2108                           ; Number of cases is 1, Range of values is 0 to 0
  2109                           ; switch strategies available:
  2110                           ; Name         Instructions Cycles
  2111                           ; simple_byte            4     3 (average)
  2112                           ;	Chosen strategy is simple_byte
  2113  000478  5023               	movf	(??_ApplicationTask+1)^0,w,c
  2114  00047A  0A00               	xorlw	0	; case 0
  2115  00047C  B4D8               	btfsc	status,2,c
  2116  00047E  EF43  F002         	goto	l2430
  2117  000482  EF12  F002         	goto	l2336
  2118  000486                     l2430:
  2119                           
  2120                           ; Switch size 1, requested type "simple"
  2121                           ; Number of cases is 5, Range of values is 0 to 4
  2122                           ; switch strategies available:
  2123                           ; Name         Instructions Cycles
  2124                           ; simple_byte           16     9 (average)
  2125                           ;	Chosen strategy is simple_byte
  2126  000486  5022               	movf	??_ApplicationTask^0,w,c
  2127  000488  0A00               	xorlw	0	; case 0
  2128  00048A  B4D8               	btfsc	status,2,c
  2129  00048C  EFA5  F001         	goto	l2302
  2130  000490  0A01               	xorlw	1	; case 1
  2131  000492  B4D8               	btfsc	status,2,c
  2132  000494  EFC2  F001         	goto	l2314
  2133  000498  0A03               	xorlw	3	; case 2
  2134  00049A  B4D8               	btfsc	status,2,c
  2135  00049C  EFF2  F001         	goto	l2330
  2136  0004A0  0A01               	xorlw	1	; case 3
  2137  0004A2  B4D8               	btfsc	status,2,c
  2138  0004A4  EF16  F002         	goto	l2338
  2139  0004A8  0A07               	xorlw	7	; case 4
  2140  0004AA  B4D8               	btfsc	status,2,c
  2141  0004AC  EF12  F002         	goto	l2336
  2142  0004B0  EF12  F002         	goto	l2336
  2143  0004B4                     l736:
  2144  0004B4  0012               	return		;funcret
  2145  0004B6                     __end_of_ApplicationTask:
  2146                           	callstack 0
  2147                           
  2148 ;; *************** function _SendIR_Frame *****************
  2149 ;; Defined at:
  2150 ;;		line 217 in file "application.c"
  2151 ;; Parameters:    Size  Location     Type
  2152 ;;  IR_Data         4    3[COMRAM] unsigned long 
  2153 ;;  numOfBitsToS    1    7[COMRAM] unsigned char 
  2154 ;; Auto vars:     Size  Location     Type
  2155 ;;  retValue        1   10[COMRAM] enum E12888
  2156 ;; Return value:  Size  Location     Type
  2157 ;;                  1    wreg      enum E12888
  2158 ;; Registers used:
  2159 ;;		wreg, status,2, status,0, cstack
  2160 ;; Tracked objects:
  2161 ;;		On entry : 0/0
  2162 ;;		On exit  : 0/0
  2163 ;;		Unchanged: 0/0
  2164 ;; Data sizes:     COMRAM   BANK0   BANK1   BANK2   BANK3   BANK4   BANK5   BANK6   BANK7   BANK8   BANK9  BANK10  BANK1
      +1  BANK12  BANK13  BANK14
  2165 ;;      Params:         5       0       0       0       0       0       0       0       0       0       0       0       
      +0       0       0       0
  2166 ;;      Locals:         1       0       0       0       0       0       0       0       0       0       0       0       
      +0       0       0       0
  2167 ;;      Temps:          2       0       0       0       0       0       0       0       0       0       0       0       
      +0       0       0       0
  2168 ;;      Totals:         8       0       0       0       0       0       0       0       0       0       0       0       
      +0       0       0       0
  2169 ;;Total ram usage:        8 bytes
  2170 ;; Hardware stack levels used:    1
  2171 ;; Hardware stack levels required when called:    4
  2172 ;; This function calls:
  2173 ;;		_DSM_ManualModulationClear
  2174 ;;		_DSM_ManualModulationSet
  2175 ;;		_DSM_ModulationStart
  2176 ;;		_DSM_ModulationStop
  2177 ;;		_TMR0_StartTimer
  2178 ;;		_TMR0_StopTimer
  2179 ;;		_TMR0_WriteTimer
  2180 ;; This function is called by:
  2181 ;;		_ApplicationTask
  2182 ;; This function uses a non-reentrant model
  2183 ;;
  2184                           
  2185                           	psect	text20
  2186  0000C2                     __ptext20:
  2187                           	callstack 0
  2188  0000C2                     _SendIR_Frame:
  2189                           	callstack 25
  2190  0000C2                     
  2191                           ;application.c: 217: static e_status SendIR_Frame (uint32_t IR_Data, uint8_t numOfBitsTo
      +                          Send);application.c: 218: {;application.c: 219:     static e_IrTxState logicState = STAR
      +                          T_TMR0;;application.c: 220:     static uint8_t bitCounter = 0;;application.c: 221:     s
      +                          tatic uint32_t tempData = 0;;application.c: 223:     e_status retValue;;application.c: 2
      +                          25:     switch (logicState)
  2192  0000C2  EF78  F001         	goto	l2252
  2193  0000C6                     l2122:
  2194                           
  2195                           ;application.c: 228:         T0CON1bits.T0CKPS= 0b1000;
  2196  0000C6  50D5               	movf	213,w,c	;volatile
  2197  0000C8  0BF0               	andlw	-16
  2198  0000CA  0908               	iorlw	8
  2199  0000CC  6ED5               	movwf	213,c	;volatile
  2200  0000CE                     
  2201                           ;application.c: 229:         TMR0_WriteTimer((uint8_t)0);
  2202  0000CE  0E00               	movlw	0
  2203  0000D0  ECA5  F004         	call	_TMR0_WriteTimer
  2204  0000D4                     
  2205                           ;application.c: 230:         timer0overflowFlag = 0;
  2206  0000D4  0E00               	movlw	0
  2207  0000D6  6E13               	movwf	_timer0overflowFlag^0,c	;volatile
  2208  0000D8                     
  2209                           ;application.c: 231:         PIE0bits.TMR0IE = 1;
  2210  0000D8  010E               	movlb	14	; () banked
  2211  0000DA  8BBD               	bsf	189,5,b	;volatile
  2212  0000DC                     
  2213                           ; BSR set to: 14
  2214                           ;application.c: 232:         TMR0_StartTimer();
  2215  0000DC  ECBF  F004         	call	_TMR0_StartTimer	;wreg free
  2216  0000E0                     
  2217                           ;application.c: 233:         DSM_ManualModulationSet();
  2218  0000E0  ECAF  F004         	call	_DSM_ManualModulationSet	;wreg free
  2219  0000E4                     
  2220                           ;application.c: 234:         DSM_ModulationStart();
  2221  0000E4  ECAC  F004         	call	_DSM_ModulationStart	;wreg free
  2222  0000E8                     
  2223                           ;application.c: 235:         logicState = START_BIT_MARK;
  2224  0000E8  0E01               	movlw	1
  2225  0000EA  6E0C               	movwf	SendIR_Frame@logicState^0,c
  2226                           
  2227                           ;application.c: 236:         break;
  2228  0000EC  EFA1  F001         	goto	l2254
  2229  0000F0                     l2138:
  2230                           
  2231                           ;application.c: 238:         if (timer0overflowFlag == 2U)
  2232  0000F0  0E02               	movlw	2
  2233  0000F2  1813               	xorwf	_timer0overflowFlag^0,w,c	;volatile
  2234  0000F4  A4D8               	btfss	status,2,c
  2235  0000F6  EF7F  F000         	goto	u391
  2236  0000FA  EF81  F000         	goto	u390
  2237  0000FE                     u391:
  2238  0000FE  EFA1  F001         	goto	l2254
  2239  000102                     u390:
  2240  000102                     
  2241                           ;application.c: 239:         {;application.c: 240:             DSM_ManualModulationClear
      +                          ();
  2242  000102  ECB2  F004         	call	_DSM_ManualModulationClear	;wreg free
  2243  000106                     
  2244                           ;application.c: 241:             timer0overflowFlag = 0;
  2245  000106  0E00               	movlw	0
  2246  000108  6E13               	movwf	_timer0overflowFlag^0,c	;volatile
  2247  00010A                     
  2248                           ;application.c: 242:             logicState = START_BIT_SPACE;
  2249  00010A  0E02               	movlw	2
  2250  00010C  6E0C               	movwf	SendIR_Frame@logicState^0,c
  2251  00010E  EFA1  F001         	goto	l2254
  2252  000112                     l2146:
  2253                           
  2254                           ;application.c: 246:         if(timer0overflowFlag)
  2255  000112  5013               	movf	_timer0overflowFlag^0,w,c	;volatile
  2256  000114  B4D8               	btfsc	status,2,c
  2257  000116  EF8F  F000         	goto	u401
  2258  00011A  EF91  F000         	goto	u400
  2259  00011E                     u401:
  2260  00011E  EFA1  F001         	goto	l2254
  2261  000122                     u400:
  2262  000122                     
  2263                           ;application.c: 247:             {;application.c: 248:                 tempData = IR_Dat
      +                          a;
  2264  000122  C019  F001         	movff	SendIR_Frame@IR_Data,SendIR_Frame@tempData
  2265  000126  C01A  F002         	movff	SendIR_Frame@IR_Data+1,SendIR_Frame@tempData+1
  2266  00012A  C01B  F003         	movff	SendIR_Frame@IR_Data+2,SendIR_Frame@tempData+2
  2267  00012E  C01C  F004         	movff	SendIR_Frame@IR_Data+3,SendIR_Frame@tempData+3
  2268                           
  2269                           ;application.c: 249:                 bitCounter = numOfBitsToSend;
  2270  000132  C01D  F00B         	movff	SendIR_Frame@numOfBitsToSend,SendIR_Frame@bitCounter
  2271                           
  2272                           ;application.c: 250:                 if(tempData & 0x80000000UL)
  2273  000136  AE04               	btfss	(SendIR_Frame@tempData+3)^0,7,c
  2274  000138  EFA0  F000         	goto	u411
  2275  00013C  EFA2  F000         	goto	u410
  2276  000140                     u411:
  2277  000140  EFB4  F000         	goto	l765
  2278  000144                     u410:
  2279  000144                     
  2280                           ;application.c: 251:                     {;application.c: 253:                         C
      +                          LC1CONbits.EN = 1; CLC2CONbits.EN = 1; CLC3CONbits.EN = 1; CLC4CONbits.EN = 1; CLC1POLbi
      +                          ts.G4POL = 1; CLC1POLbits.G4POL = 0; CLC2POLbits.G3POL = 1; CLC2POLbits.G3POL = 0; CLC3P
      +                          OLbits.G3POL = 1; CLC3POLbits.G3POL = 0;
  2281  000144  010E               	movlb	14	; () banked
  2282  000146  8F27               	bsf	39,7,b	;volatile
  2283  000148  8F31               	bsf	49,7,b	;volatile
  2284  00014A  8F3B               	bsf	59,7,b	;volatile
  2285  00014C  8F45               	bsf	69,7,b	;volatile
  2286  00014E  8728               	bsf	40,3,b	;volatile
  2287  000150  9728               	bcf	40,3,b	;volatile
  2288  000152  8532               	bsf	50,2,b	;volatile
  2289  000154  9532               	bcf	50,2,b	;volatile
  2290  000156  853C               	bsf	60,2,b	;volatile
  2291  000158  953C               	bcf	60,2,b	;volatile
  2292  00015A                     
  2293                           ; BSR set to: 14
  2294                           ;application.c: 255:                         MDSRC = (uint8_t)0x10;
  2295  00015A  0E10               	movlw	16
  2296  00015C  010F               	movlb	15	; () banked
  2297  00015E  6F4E               	movwf	78,b	;volatile
  2298                           
  2299                           ;application.c: 256:                         logicState = LOGIC_1;
  2300  000160  0E03               	movlw	3
  2301  000162  6E0C               	movwf	SendIR_Frame@logicState^0,c
  2302                           
  2303                           ;application.c: 257:                     }
  2304  000164  EFBB  F000         	goto	l2156
  2305  000168                     l765:
  2306                           
  2307                           ;application.c: 259:                     {;application.c: 261:                         C
      +                          LC5CONbits.EN = 1;;
  2308  000168  010E               	movlb	14	; () banked
  2309  00016A  8F4F               	bsf	79,7,b	;volatile
  2310  00016C                     
  2311                           ; BSR set to: 14
  2312                           ;application.c: 263:                         MDSRC = (uint8_t)0x14;
  2313  00016C  0E14               	movlw	20
  2314  00016E  010F               	movlb	15	; () banked
  2315  000170  6F4E               	movwf	78,b	;volatile
  2316                           
  2317                           ;application.c: 264:                         logicState = LOGIC_0;
  2318  000172  0E04               	movlw	4
  2319  000174  6E0C               	movwf	SendIR_Frame@logicState^0,c
  2320  000176                     l2156:
  2321                           
  2322                           ; BSR set to: 15
  2323                           ;application.c: 266:                 tempData <<= 1;
  2324  000176  90D8               	bcf	status,0,c
  2325  000178  3601               	rlcf	SendIR_Frame@tempData^0,f,c
  2326  00017A  3602               	rlcf	(SendIR_Frame@tempData+1)^0,f,c
  2327  00017C  3603               	rlcf	(SendIR_Frame@tempData+2)^0,f,c
  2328  00017E  3604               	rlcf	(SendIR_Frame@tempData+3)^0,f,c
  2329  000180                     
  2330                           ; BSR set to: 15
  2331                           ;application.c: 267:                 T0CON1bits.T0CKPS= 0b0101;
  2332  000180  50D5               	movf	213,w,c	;volatile
  2333  000182  0BF0               	andlw	-16
  2334  000184  0905               	iorlw	5
  2335  000186  6ED5               	movwf	213,c	;volatile
  2336  000188                     
  2337                           ; BSR set to: 15
  2338                           ;application.c: 269:                 timer0overflowFlag = 0;
  2339  000188  0E00               	movlw	0
  2340  00018A  6E13               	movwf	_timer0overflowFlag^0,c	;volatile
  2341  00018C                     
  2342                           ; BSR set to: 15
  2343                           ;application.c: 271:                 PIE0bits.TMR0IE = 0;
  2344  00018C  010E               	movlb	14	; () banked
  2345  00018E  9BBD               	bcf	189,5,b	;volatile
  2346  000190  EFA1  F001         	goto	l2254
  2347  000194                     l2164:
  2348                           
  2349                           ;application.c: 275:        if(clc1risingEdgeFlag)
  2350  000194  5014               	movf	_clc1risingEdgeFlag^0,w,c	;volatile
  2351  000196  B4D8               	btfsc	status,2,c
  2352  000198  EFD0  F000         	goto	u421
  2353  00019C  EFD2  F000         	goto	u420
  2354  0001A0                     u421:
  2355  0001A0  EFA1  F001         	goto	l2254
  2356  0001A4                     u420:
  2357  0001A4                     
  2358                           ;application.c: 276:         {;application.c: 277:             if(bitCounter == 0)
  2359  0001A4  500B               	movf	SendIR_Frame@bitCounter^0,w,c
  2360  0001A6  A4D8               	btfss	status,2,c
  2361  0001A8  EFD8  F000         	goto	u431
  2362  0001AC  EFDA  F000         	goto	u430
  2363  0001B0                     u431:
  2364  0001B0  EFEB  F000         	goto	l769
  2365  0001B4                     u430:
  2366  0001B4                     
  2367                           ;application.c: 278:             {;application.c: 279:                 DSM_ManualModulat
      +                          ionSet();
  2368  0001B4  ECAF  F004         	call	_DSM_ManualModulationSet	;wreg free
  2369  0001B8                     
  2370                           ;application.c: 280:                 MDSRC = (uint8_t)0x01;
  2371  0001B8  0E01               	movlw	1
  2372  0001BA  010F               	movlb	15	; () banked
  2373  0001BC  6F4E               	movwf	78,b	;volatile
  2374  0001BE                     
  2375                           ; BSR set to: 15
  2376                           ;application.c: 281:                 logicState = STOP_BIT;
  2377  0001BE  0E05               	movlw	5
  2378  0001C0  6E0C               	movwf	SendIR_Frame@logicState^0,c
  2379  0001C2                     
  2380                           ; BSR set to: 15
  2381                           ;application.c: 282:                 CLC1CONbits.EN = 0; CLC2CONbits.EN = 0; CLC3CONbits
      +                          .EN = 0; CLC4CONbits.EN = 0;
  2382  0001C2  010E               	movlb	14	; () banked
  2383  0001C4  9F27               	bcf	39,7,b	;volatile
  2384  0001C6                     
  2385                           ; BSR set to: 14
  2386  0001C6  9F31               	bcf	49,7,b	;volatile
  2387  0001C8                     
  2388                           ; BSR set to: 14
  2389  0001C8  9F3B               	bcf	59,7,b	;volatile
  2390  0001CA                     
  2391                           ; BSR set to: 14
  2392  0001CA  9F45               	bcf	69,7,b	;volatile
  2393  0001CC                     
  2394                           ; BSR set to: 14
  2395                           ;application.c: 283:                 clc1FirstRisingEdge = 0;
  2396  0001CC  0E00               	movlw	0
  2397  0001CE  6E15               	movwf	_clc1FirstRisingEdge^0,c	;volatile
  2398  0001D0                     
  2399                           ; BSR set to: 14
  2400                           ;application.c: 284:                 PIE0bits.TMR0IE = 1;
  2401  0001D0  8BBD               	bsf	189,5,b	;volatile
  2402                           
  2403                           ;application.c: 285:             }
  2404  0001D2  EF06  F001         	goto	l770
  2405  0001D6                     l769:
  2406                           
  2407                           ;application.c: 287:             {;application.c: 288:                 if(!(tempData & 0
      +                          x80000000UL))
  2408  0001D6  BE04               	btfsc	(SendIR_Frame@tempData+3)^0,7,c
  2409  0001D8  EFF0  F000         	goto	u441
  2410  0001DC  EFF2  F000         	goto	u440
  2411  0001E0                     u441:
  2412  0001E0  EF00  F001         	goto	l2198
  2413  0001E4                     u440:
  2414  0001E4                     
  2415                           ;application.c: 289:                 {;application.c: 291:                     CLC5CONbi
      +                          ts.EN = 1;;
  2416  0001E4  010E               	movlb	14	; () banked
  2417  0001E6  8F4F               	bsf	79,7,b	;volatile
  2418  0001E8                     
  2419                           ; BSR set to: 14
  2420                           ;application.c: 293:                     MDSRC = (uint8_t)0x14;
  2421  0001E8  0E14               	movlw	20
  2422  0001EA  010F               	movlb	15	; () banked
  2423  0001EC  6F4E               	movwf	78,b	;volatile
  2424  0001EE                     
  2425                           ; BSR set to: 15
  2426                           ;application.c: 294:                     CLC1CONbits.EN = 0; CLC2CONbits.EN = 0; CLC3CON
      +                          bits.EN = 0; CLC4CONbits.EN = 0;
  2427  0001EE  010E               	movlb	14	; () banked
  2428  0001F0  9F27               	bcf	39,7,b	;volatile
  2429  0001F2                     
  2430                           ; BSR set to: 14
  2431  0001F2  9F31               	bcf	49,7,b	;volatile
  2432  0001F4                     
  2433                           ; BSR set to: 14
  2434  0001F4  9F3B               	bcf	59,7,b	;volatile
  2435  0001F6                     
  2436                           ; BSR set to: 14
  2437  0001F6  9F45               	bcf	69,7,b	;volatile
  2438                           
  2439                           ;application.c: 295:                     clc1FirstRisingEdge = 0;
  2440  0001F8  0E00               	movlw	0
  2441  0001FA  6E15               	movwf	_clc1FirstRisingEdge^0,c	;volatile
  2442                           
  2443                           ;application.c: 296:                     logicState = LOGIC_0;
  2444  0001FC  0E04               	movlw	4
  2445  0001FE  6E0C               	movwf	SendIR_Frame@logicState^0,c
  2446  000200                     l2198:
  2447                           
  2448                           ;application.c: 298:                 bitCounter--;
  2449  000200  060B               	decf	SendIR_Frame@bitCounter^0,f,c
  2450  000202                     
  2451                           ;application.c: 299:                 tempData <<= 1;
  2452  000202  90D8               	bcf	status,0,c
  2453  000204  3601               	rlcf	SendIR_Frame@tempData^0,f,c
  2454  000206  3602               	rlcf	(SendIR_Frame@tempData+1)^0,f,c
  2455  000208  3603               	rlcf	(SendIR_Frame@tempData+2)^0,f,c
  2456  00020A  3604               	rlcf	(SendIR_Frame@tempData+3)^0,f,c
  2457  00020C                     l770:
  2458                           
  2459                           ;application.c: 301:             clc1risingEdgeFlag = 0;
  2460  00020C  0E00               	movlw	0
  2461  00020E  6E14               	movwf	_clc1risingEdgeFlag^0,c	;volatile
  2462  000210  EFA1  F001         	goto	l2254
  2463  000214                     l2202:
  2464                           
  2465                           ;application.c: 305:         if(clc5RisingEdgeFlag)
  2466  000214  5012               	movf	_clc5RisingEdgeFlag^0,w,c	;volatile
  2467  000216  B4D8               	btfsc	status,2,c
  2468  000218  EF10  F001         	goto	u451
  2469  00021C  EF12  F001         	goto	u450
  2470  000220                     u451:
  2471  000220  EFA1  F001         	goto	l2254
  2472  000224                     u450:
  2473  000224                     
  2474                           ;application.c: 306:         {;application.c: 307:             if(bitCounter == 0)
  2475  000224  500B               	movf	SendIR_Frame@bitCounter^0,w,c
  2476  000226  A4D8               	btfss	status,2,c
  2477  000228  EF18  F001         	goto	u461
  2478  00022C  EF1A  F001         	goto	u460
  2479  000230                     u461:
  2480  000230  EF26  F001         	goto	l774
  2481  000234                     u460:
  2482  000234                     
  2483                           ;application.c: 308:             {;application.c: 309:                 DSM_ManualModulat
      +                          ionSet();
  2484  000234  ECAF  F004         	call	_DSM_ManualModulationSet	;wreg free
  2485  000238                     
  2486                           ;application.c: 310:                 MDSRC = (uint8_t)0x01;
  2487  000238  0E01               	movlw	1
  2488  00023A  010F               	movlb	15	; () banked
  2489  00023C  6F4E               	movwf	78,b	;volatile
  2490  00023E                     
  2491                           ; BSR set to: 15
  2492                           ;application.c: 311:                 logicState = STOP_BIT;
  2493  00023E  0E05               	movlw	5
  2494  000240  6E0C               	movwf	SendIR_Frame@logicState^0,c
  2495  000242                     
  2496                           ; BSR set to: 15
  2497                           ;application.c: 312:                 CLC5CONbits.EN = 0;
  2498  000242  010E               	movlb	14	; () banked
  2499  000244  9F4F               	bcf	79,7,b	;volatile
  2500  000246                     
  2501                           ; BSR set to: 14
  2502                           ;application.c: 313:                 PIE0bits.TMR0IE = 1;
  2503  000246  8BBD               	bsf	189,5,b	;volatile
  2504                           
  2505                           ;application.c: 314:             }
  2506  000248  EF45  F001         	goto	l775
  2507  00024C                     l774:
  2508                           
  2509                           ;application.c: 316:             {;application.c: 317:                 if(tempData & 0x8
      +                          0000000UL)
  2510  00024C  AE04               	btfss	(SendIR_Frame@tempData+3)^0,7,c
  2511  00024E  EF2B  F001         	goto	u471
  2512  000252  EF2D  F001         	goto	u470
  2513  000256                     u471:
  2514  000256  EF3F  F001         	goto	l2222
  2515  00025A                     u470:
  2516  00025A                     
  2517                           ;application.c: 318:                 {;application.c: 320:                     CLC1CONbi
      +                          ts.EN = 1; CLC2CONbits.EN = 1; CLC3CONbits.EN = 1; CLC4CONbits.EN = 1; CLC1POLbits.G4POL
      +                           = 1; CLC1POLbits.G4POL = 0; CLC2POLbits.G3POL = 1; CLC2POLbits.G3POL = 0; CLC3POLbits.G
      +                          3POL = 1; CLC3POLbits.G3POL = 0;
  2518  00025A  010E               	movlb	14	; () banked
  2519  00025C  8F27               	bsf	39,7,b	;volatile
  2520  00025E  8F31               	bsf	49,7,b	;volatile
  2521  000260  8F3B               	bsf	59,7,b	;volatile
  2522  000262  8F45               	bsf	69,7,b	;volatile
  2523  000264  8728               	bsf	40,3,b	;volatile
  2524  000266  9728               	bcf	40,3,b	;volatile
  2525  000268  8532               	bsf	50,2,b	;volatile
  2526  00026A  9532               	bcf	50,2,b	;volatile
  2527  00026C  853C               	bsf	60,2,b	;volatile
  2528  00026E  953C               	bcf	60,2,b	;volatile
  2529  000270                     
  2530                           ; BSR set to: 14
  2531                           ;application.c: 322:                     MDSRC = (uint8_t)0x10;
  2532  000270  0E10               	movlw	16
  2533  000272  010F               	movlb	15	; () banked
  2534  000274  6F4E               	movwf	78,b	;volatile
  2535  000276                     
  2536                           ; BSR set to: 15
  2537                           ;application.c: 323:                     CLC5CONbits.EN = 0;
  2538  000276  010E               	movlb	14	; () banked
  2539  000278  9F4F               	bcf	79,7,b	;volatile
  2540                           
  2541                           ;application.c: 324:                     logicState = LOGIC_1;
  2542  00027A  0E03               	movlw	3
  2543  00027C  6E0C               	movwf	SendIR_Frame@logicState^0,c
  2544  00027E                     l2222:
  2545                           
  2546                           ;application.c: 326:                 bitCounter--;
  2547  00027E  060B               	decf	SendIR_Frame@bitCounter^0,f,c
  2548  000280                     
  2549                           ;application.c: 327:                 tempData <<= 1;
  2550  000280  90D8               	bcf	status,0,c
  2551  000282  3601               	rlcf	SendIR_Frame@tempData^0,f,c
  2552  000284  3602               	rlcf	(SendIR_Frame@tempData+1)^0,f,c
  2553  000286  3603               	rlcf	(SendIR_Frame@tempData+2)^0,f,c
  2554  000288  3604               	rlcf	(SendIR_Frame@tempData+3)^0,f,c
  2555  00028A                     l775:
  2556                           
  2557                           ;application.c: 329:             clc5RisingEdgeFlag = 0;
  2558  00028A  0E00               	movlw	0
  2559  00028C  6E12               	movwf	_clc5RisingEdgeFlag^0,c	;volatile
  2560  00028E  EFA1  F001         	goto	l2254
  2561  000292                     l2226:
  2562                           
  2563                           ;application.c: 333:         if(timer0overflowFlag)
  2564  000292  5013               	movf	_timer0overflowFlag^0,w,c	;volatile
  2565  000294  B4D8               	btfsc	status,2,c
  2566  000296  EF4F  F001         	goto	u481
  2567  00029A  EF51  F001         	goto	u480
  2568  00029E                     u481:
  2569  00029E  EFA1  F001         	goto	l2254
  2570  0002A2                     u480:
  2571  0002A2                     
  2572                           ;application.c: 334:         {;application.c: 335:             logicState = STOP_FRAME;
  2573  0002A2  0E06               	movlw	6
  2574  0002A4  6E0C               	movwf	SendIR_Frame@logicState^0,c
  2575                           
  2576                           ;application.c: 336:             timer0overflowFlag = 0;
  2577  0002A6  0E00               	movlw	0
  2578  0002A8  6E13               	movwf	_timer0overflowFlag^0,c	;volatile
  2579  0002AA  EFA1  F001         	goto	l2254
  2580  0002AE                     l2230:
  2581                           
  2582                           ;application.c: 340:         if(timer0overflowFlag)
  2583  0002AE  5013               	movf	_timer0overflowFlag^0,w,c	;volatile
  2584  0002B0  B4D8               	btfsc	status,2,c
  2585  0002B2  EF5D  F001         	goto	u491
  2586  0002B6  EF5F  F001         	goto	u490
  2587  0002BA                     u491:
  2588  0002BA  EFA1  F001         	goto	l2254
  2589  0002BE                     u490:
  2590  0002BE                     
  2591                           ;application.c: 341:         {;application.c: 342:             TMR0_StopTimer();
  2592  0002BE  ECBD  F004         	call	_TMR0_StopTimer	;wreg free
  2593  0002C2                     
  2594                           ;application.c: 343:             T0CON1bits.T0CKPS= 0b1000;
  2595  0002C2  50D5               	movf	213,w,c	;volatile
  2596  0002C4  0BF0               	andlw	-16
  2597  0002C6  0908               	iorlw	8
  2598  0002C8  6ED5               	movwf	213,c	;volatile
  2599  0002CA                     
  2600                           ;application.c: 344:             DSM_ManualModulationClear();
  2601  0002CA  ECB2  F004         	call	_DSM_ManualModulationClear	;wreg free
  2602  0002CE                     
  2603                           ;application.c: 345:             DSM_ModulationStop();
  2604  0002CE  ECA9  F004         	call	_DSM_ModulationStop	;wreg free
  2605  0002D2                     
  2606                           ;application.c: 346:             logicState = START_TMR0;
  2607  0002D2  0E00               	movlw	0
  2608  0002D4  6E0C               	movwf	SendIR_Frame@logicState^0,c
  2609  0002D6                     
  2610                           ;application.c: 347:             timer0overflowFlag = 0;
  2611  0002D6  0E00               	movlw	0
  2612  0002D8  6E13               	movwf	_timer0overflowFlag^0,c	;volatile
  2613  0002DA                     
  2614                           ;application.c: 348:             PIE0bits.TMR0IE = 0;
  2615  0002DA  010E               	movlb	14	; () banked
  2616  0002DC  9BBD               	bcf	189,5,b	;volatile
  2617  0002DE                     
  2618                           ; BSR set to: 14
  2619                           ;application.c: 349:             retValue = SUCCESS;
  2620  0002DE  0E01               	movlw	1
  2621  0002E0  6E20               	movwf	SendIR_Frame@retValue^0,c
  2622  0002E2  EFA1  F001         	goto	l2254
  2623  0002E6                     l781:
  2624                           
  2625                           ;application.c: 353:         retValue = ERROR;
  2626  0002E6  6820               	setf	SendIR_Frame@retValue^0,c
  2627  0002E8                     
  2628                           ;application.c: 354:         logicState = START_TMR0;
  2629  0002E8  0E00               	movlw	0
  2630  0002EA  6E0C               	movwf	SendIR_Frame@logicState^0,c
  2631                           
  2632                           ;application.c: 355:         break;
  2633  0002EC  EFA1  F001         	goto	l2254
  2634  0002F0                     l2252:
  2635  0002F0  500C               	movf	SendIR_Frame@logicState^0,w,c
  2636  0002F2  6E1E               	movwf	??_SendIR_Frame^0,c
  2637  0002F4  6A1F               	clrf	(??_SendIR_Frame+1)^0,c
  2638                           
  2639                           ; Switch on 2 bytes has been partitioned into a top level switch of size 1, and 1 sub-sw
      +                          itches
  2640                           ; Switch size 1, requested type "simple"
  2641                           ; Number of cases is 1, Range of values is 0 to 0
  2642                           ; switch strategies available:
  2643                           ; Name         Instructions Cycles
  2644                           ; simple_byte            4     3 (average)
  2645                           ;	Chosen strategy is simple_byte
  2646  0002F6  501F               	movf	(??_SendIR_Frame+1)^0,w,c
  2647  0002F8  0A00               	xorlw	0	; case 0
  2648  0002FA  B4D8               	btfsc	status,2,c
  2649  0002FC  EF82  F001         	goto	l2432
  2650  000300  EF73  F001         	goto	l781
  2651  000304                     l2432:
  2652                           
  2653                           ; Switch size 1, requested type "simple"
  2654                           ; Number of cases is 7, Range of values is 0 to 6
  2655                           ; switch strategies available:
  2656                           ; Name         Instructions Cycles
  2657                           ; simple_byte           22    12 (average)
  2658                           ;	Chosen strategy is simple_byte
  2659  000304  501E               	movf	??_SendIR_Frame^0,w,c
  2660  000306  0A00               	xorlw	0	; case 0
  2661  000308  B4D8               	btfsc	status,2,c
  2662  00030A  EF63  F000         	goto	l2122
  2663  00030E  0A01               	xorlw	1	; case 1
  2664  000310  B4D8               	btfsc	status,2,c
  2665  000312  EF78  F000         	goto	l2138
  2666  000316  0A03               	xorlw	3	; case 2
  2667  000318  B4D8               	btfsc	status,2,c
  2668  00031A  EF89  F000         	goto	l2146
  2669  00031E  0A01               	xorlw	1	; case 3
  2670  000320  B4D8               	btfsc	status,2,c
  2671  000322  EFCA  F000         	goto	l2164
  2672  000326  0A07               	xorlw	7	; case 4
  2673  000328  B4D8               	btfsc	status,2,c
  2674  00032A  EF0A  F001         	goto	l2202
  2675  00032E  0A01               	xorlw	1	; case 5
  2676  000330  B4D8               	btfsc	status,2,c
  2677  000332  EF49  F001         	goto	l2226
  2678  000336  0A03               	xorlw	3	; case 6
  2679  000338  B4D8               	btfsc	status,2,c
  2680  00033A  EF57  F001         	goto	l2230
  2681  00033E  EF73  F001         	goto	l781
  2682  000342                     l2254:
  2683                           
  2684                           ;application.c: 357:     return retValue;
  2685  000342  5020               	movf	SendIR_Frame@retValue^0,w,c
  2686  000344  0012               	return		;funcret
  2687  000346                     __end_of_SendIR_Frame:
  2688                           	callstack 0
  2689                           
  2690 ;; *************** function _TMR0_WriteTimer *****************
  2691 ;; Defined at:
  2692 ;;		line 110 in file "mcc_generated_files/tmr0.c"
  2693 ;; Parameters:    Size  Location     Type
  2694 ;;  timerVal        1    wreg     unsigned char 
  2695 ;; Auto vars:     Size  Location     Type
  2696 ;;  timerVal        1    2[COMRAM] unsigned char 
  2697 ;; Return value:  Size  Location     Type
  2698 ;;                  1    wreg      void 
  2699 ;; Registers used:
  2700 ;;		wreg
  2701 ;; Tracked objects:
  2702 ;;		On entry : 0/0
  2703 ;;		On exit  : 0/0
  2704 ;;		Unchanged: 0/0
  2705 ;; Data sizes:     COMRAM   BANK0   BANK1   BANK2   BANK3   BANK4   BANK5   BANK6   BANK7   BANK8   BANK9  BANK10  BANK1
      +1  BANK12  BANK13  BANK14
  2706 ;;      Params:         0       0       0       0       0       0       0       0       0       0       0       0       
      +0       0       0       0
  2707 ;;      Locals:         1       0       0       0       0       0       0       0       0       0       0       0       
      +0       0       0       0
  2708 ;;      Temps:          0       0       0       0       0       0       0       0       0       0       0       0       
      +0       0       0       0
  2709 ;;      Totals:         1       0       0       0       0       0       0       0       0       0       0       0       
      +0       0       0       0
  2710 ;;Total ram usage:        1 bytes
  2711 ;; Hardware stack levels used:    1
  2712 ;; Hardware stack levels required when called:    3
  2713 ;; This function calls:
  2714 ;;		Nothing
  2715 ;; This function is called by:
  2716 ;;		_SendIR_Frame
  2717 ;; This function uses a non-reentrant model
  2718 ;;
  2719                           
  2720                           	psect	text21
  2721  00094A                     __ptext21:
  2722                           	callstack 0
  2723  00094A                     _TMR0_WriteTimer:
  2724                           	callstack 25
  2725                           
  2726                           ;incstack = 0
  2727                           ;TMR0_WriteTimer@timerVal stored from wreg
  2728  00094A  6E18               	movwf	TMR0_WriteTimer@timerVal^0,c
  2729  00094C                     
  2730                           ;mcc_generated_files/tmr0.c: 110: void TMR0_WriteTimer(uint8_t timerVal);mcc_generated_f
      +                          iles/tmr0.c: 111: {;mcc_generated_files/tmr0.c: 113:     TMR0L = timerVal;
  2731  00094C  C018  FFD2         	movff	TMR0_WriteTimer@timerVal,4050	;volatile
  2732  000950  0012               	return		;funcret
  2733  000952                     __end_of_TMR0_WriteTimer:
  2734                           	callstack 0
  2735                           
  2736 ;; *************** function _TMR0_StopTimer *****************
  2737 ;; Defined at:
  2738 ;;		line 94 in file "mcc_generated_files/tmr0.c"
  2739 ;; Parameters:    Size  Location     Type
  2740 ;;		None
  2741 ;; Auto vars:     Size  Location     Type
  2742 ;;		None
  2743 ;; Return value:  Size  Location     Type
  2744 ;;                  1    wreg      void 
  2745 ;; Registers used:
  2746 ;;		None
  2747 ;; Tracked objects:
  2748 ;;		On entry : 0/0
  2749 ;;		On exit  : 0/0
  2750 ;;		Unchanged: 0/0
  2751 ;; Data sizes:     COMRAM   BANK0   BANK1   BANK2   BANK3   BANK4   BANK5   BANK6   BANK7   BANK8   BANK9  BANK10  BANK1
      +1  BANK12  BANK13  BANK14
  2752 ;;      Params:         0       0       0       0       0       0       0       0       0       0       0       0       
      +0       0       0       0
  2753 ;;      Locals:         0       0       0       0       0       0       0       0       0       0       0       0       
      +0       0       0       0
  2754 ;;      Temps:          0       0       0       0       0       0       0       0       0       0       0       0       
      +0       0       0       0
  2755 ;;      Totals:         0       0       0       0       0       0       0       0       0       0       0       0       
      +0       0       0       0
  2756 ;;Total ram usage:        0 bytes
  2757 ;; Hardware stack levels used:    1
  2758 ;; Hardware stack levels required when called:    3
  2759 ;; This function calls:
  2760 ;;		Nothing
  2761 ;; This function is called by:
  2762 ;;		_SendIR_Frame
  2763 ;; This function uses a non-reentrant model
  2764 ;;
  2765                           
  2766                           	psect	text22
  2767  00097A                     __ptext22:
  2768                           	callstack 0
  2769  00097A                     _TMR0_StopTimer:
  2770                           	callstack 25
  2771  00097A                     
  2772                           ;mcc_generated_files/tmr0.c: 97:     T0CON0bits.T0EN = 0;
  2773  00097A  9ED4               	bcf	212,7,c	;volatile
  2774  00097C  0012               	return		;funcret
  2775  00097E                     __end_of_TMR0_StopTimer:
  2776                           	callstack 0
  2777                           
  2778 ;; *************** function _TMR0_StartTimer *****************
  2779 ;; Defined at:
  2780 ;;		line 88 in file "mcc_generated_files/tmr0.c"
  2781 ;; Parameters:    Size  Location     Type
  2782 ;;		None
  2783 ;; Auto vars:     Size  Location     Type
  2784 ;;		None
  2785 ;; Return value:  Size  Location     Type
  2786 ;;                  1    wreg      void 
  2787 ;; Registers used:
  2788 ;;		None
  2789 ;; Tracked objects:
  2790 ;;		On entry : 0/0
  2791 ;;		On exit  : 0/0
  2792 ;;		Unchanged: 0/0
  2793 ;; Data sizes:     COMRAM   BANK0   BANK1   BANK2   BANK3   BANK4   BANK5   BANK6   BANK7   BANK8   BANK9  BANK10  BANK1
      +1  BANK12  BANK13  BANK14
  2794 ;;      Params:         0       0       0       0       0       0       0       0       0       0       0       0       
      +0       0       0       0
  2795 ;;      Locals:         0       0       0       0       0       0       0       0       0       0       0       0       
      +0       0       0       0
  2796 ;;      Temps:          0       0       0       0       0       0       0       0       0       0       0       0       
      +0       0       0       0
  2797 ;;      Totals:         0       0       0       0       0       0       0       0       0       0       0       0       
      +0       0       0       0
  2798 ;;Total ram usage:        0 bytes
  2799 ;; Hardware stack levels used:    1
  2800 ;; Hardware stack levels required when called:    3
  2801 ;; This function calls:
  2802 ;;		Nothing
  2803 ;; This function is called by:
  2804 ;;		_SendIR_Frame
  2805 ;; This function uses a non-reentrant model
  2806 ;;
  2807                           
  2808                           	psect	text23
  2809  00097E                     __ptext23:
  2810                           	callstack 0
  2811  00097E                     _TMR0_StartTimer:
  2812                           	callstack 25
  2813  00097E                     
  2814                           ;mcc_generated_files/tmr0.c: 91:     T0CON0bits.T0EN = 1;
  2815  00097E  8ED4               	bsf	212,7,c	;volatile
  2816  000980  0012               	return		;funcret
  2817  000982                     __end_of_TMR0_StartTimer:
  2818                           	callstack 0
  2819                           
  2820 ;; *************** function _DSM_ModulationStop *****************
  2821 ;; Defined at:
  2822 ;;		line 114 in file "mcc_generated_files/dsm.c"
  2823 ;; Parameters:    Size  Location     Type
  2824 ;;		None
  2825 ;; Auto vars:     Size  Location     Type
  2826 ;;		None
  2827 ;; Return value:  Size  Location     Type
  2828 ;;                  1    wreg      void 
  2829 ;; Registers used:
  2830 ;;		None
  2831 ;; Tracked objects:
  2832 ;;		On entry : 0/0
  2833 ;;		On exit  : 0/0
  2834 ;;		Unchanged: 0/0
  2835 ;; Data sizes:     COMRAM   BANK0   BANK1   BANK2   BANK3   BANK4   BANK5   BANK6   BANK7   BANK8   BANK9  BANK10  BANK1
      +1  BANK12  BANK13  BANK14
  2836 ;;      Params:         0       0       0       0       0       0       0       0       0       0       0       0       
      +0       0       0       0
  2837 ;;      Locals:         0       0       0       0       0       0       0       0       0       0       0       0       
      +0       0       0       0
  2838 ;;      Temps:          0       0       0       0       0       0       0       0       0       0       0       0       
      +0       0       0       0
  2839 ;;      Totals:         0       0       0       0       0       0       0       0       0       0       0       0       
      +0       0       0       0
  2840 ;;Total ram usage:        0 bytes
  2841 ;; Hardware stack levels used:    1
  2842 ;; Hardware stack levels required when called:    3
  2843 ;; This function calls:
  2844 ;;		Nothing
  2845 ;; This function is called by:
  2846 ;;		_SendIR_Frame
  2847 ;; This function uses a non-reentrant model
  2848 ;;
  2849                           
  2850                           	psect	text24
  2851  000952                     __ptext24:
  2852                           	callstack 0
  2853  000952                     _DSM_ModulationStop:
  2854                           	callstack 25
  2855  000952                     
  2856                           ;mcc_generated_files/dsm.c: 117:     MDCON0bits.MDEN = 0;
  2857  000952  010F               	movlb	15	; () banked
  2858  000954  9F4C               	bcf	76,7,b	;volatile
  2859  000956                     
  2860                           ; BSR set to: 15
  2861  000956  0012               	return		;funcret
  2862  000958                     __end_of_DSM_ModulationStop:
  2863                           	callstack 0
  2864                           
  2865 ;; *************** function _DSM_ModulationStart *****************
  2866 ;; Defined at:
  2867 ;;		line 108 in file "mcc_generated_files/dsm.c"
  2868 ;; Parameters:    Size  Location     Type
  2869 ;;		None
  2870 ;; Auto vars:     Size  Location     Type
  2871 ;;		None
  2872 ;; Return value:  Size  Location     Type
  2873 ;;                  1    wreg      void 
  2874 ;; Registers used:
  2875 ;;		None
  2876 ;; Tracked objects:
  2877 ;;		On entry : 0/0
  2878 ;;		On exit  : 0/0
  2879 ;;		Unchanged: 0/0
  2880 ;; Data sizes:     COMRAM   BANK0   BANK1   BANK2   BANK3   BANK4   BANK5   BANK6   BANK7   BANK8   BANK9  BANK10  BANK1
      +1  BANK12  BANK13  BANK14
  2881 ;;      Params:         0       0       0       0       0       0       0       0       0       0       0       0       
      +0       0       0       0
  2882 ;;      Locals:         0       0       0       0       0       0       0       0       0       0       0       0       
      +0       0       0       0
  2883 ;;      Temps:          0       0       0       0       0       0       0       0       0       0       0       0       
      +0       0       0       0
  2884 ;;      Totals:         0       0       0       0       0       0       0       0       0       0       0       0       
      +0       0       0       0
  2885 ;;Total ram usage:        0 bytes
  2886 ;; Hardware stack levels used:    1
  2887 ;; Hardware stack levels required when called:    3
  2888 ;; This function calls:
  2889 ;;		Nothing
  2890 ;; This function is called by:
  2891 ;;		_SendIR_Frame
  2892 ;; This function uses a non-reentrant model
  2893 ;;
  2894                           
  2895                           	psect	text25
  2896  000958                     __ptext25:
  2897                           	callstack 0
  2898  000958                     _DSM_ModulationStart:
  2899                           	callstack 25
  2900  000958                     
  2901                           ;mcc_generated_files/dsm.c: 111:     MDCON0bits.MDEN = 1;
  2902  000958  010F               	movlb	15	; () banked
  2903  00095A  8F4C               	bsf	76,7,b	;volatile
  2904  00095C                     
  2905                           ; BSR set to: 15
  2906  00095C  0012               	return		;funcret
  2907  00095E                     __end_of_DSM_ModulationStart:
  2908                           	callstack 0
  2909                           
  2910 ;; *************** function _DSM_ManualModulationSet *****************
  2911 ;; Defined at:
  2912 ;;		line 90 in file "mcc_generated_files/dsm.c"
  2913 ;; Parameters:    Size  Location     Type
  2914 ;;		None
  2915 ;; Auto vars:     Size  Location     Type
  2916 ;;		None
  2917 ;; Return value:  Size  Location     Type
  2918 ;;                  1    wreg      void 
  2919 ;; Registers used:
  2920 ;;		None
  2921 ;; Tracked objects:
  2922 ;;		On entry : 0/0
  2923 ;;		On exit  : 0/0
  2924 ;;		Unchanged: 0/0
  2925 ;; Data sizes:     COMRAM   BANK0   BANK1   BANK2   BANK3   BANK4   BANK5   BANK6   BANK7   BANK8   BANK9  BANK10  BANK1
      +1  BANK12  BANK13  BANK14
  2926 ;;      Params:         0       0       0       0       0       0       0       0       0       0       0       0       
      +0       0       0       0
  2927 ;;      Locals:         0       0       0       0       0       0       0       0       0       0       0       0       
      +0       0       0       0
  2928 ;;      Temps:          0       0       0       0       0       0       0       0       0       0       0       0       
      +0       0       0       0
  2929 ;;      Totals:         0       0       0       0       0       0       0       0       0       0       0       0       
      +0       0       0       0
  2930 ;;Total ram usage:        0 bytes
  2931 ;; Hardware stack levels used:    1
  2932 ;; Hardware stack levels required when called:    3
  2933 ;; This function calls:
  2934 ;;		Nothing
  2935 ;; This function is called by:
  2936 ;;		_SendIR_Frame
  2937 ;; This function uses a non-reentrant model
  2938 ;;
  2939                           
  2940                           	psect	text26
  2941  00095E                     __ptext26:
  2942                           	callstack 0
  2943  00095E                     _DSM_ManualModulationSet:
  2944                           	callstack 25
  2945  00095E                     
  2946                           ;mcc_generated_files/dsm.c: 93:     MDCON0bits.MDBIT = 1;
  2947  00095E  010F               	movlb	15	; () banked
  2948  000960  814C               	bsf	76,0,b	;volatile
  2949  000962                     
  2950                           ; BSR set to: 15
  2951  000962  0012               	return		;funcret
  2952  000964                     __end_of_DSM_ManualModulationSet:
  2953                           	callstack 0
  2954                           
  2955 ;; *************** function _DSM_ManualModulationClear *****************
  2956 ;; Defined at:
  2957 ;;		line 96 in file "mcc_generated_files/dsm.c"
  2958 ;; Parameters:    Size  Location     Type
  2959 ;;		None
  2960 ;; Auto vars:     Size  Location     Type
  2961 ;;		None
  2962 ;; Return value:  Size  Location     Type
  2963 ;;                  1    wreg      void 
  2964 ;; Registers used:
  2965 ;;		None
  2966 ;; Tracked objects:
  2967 ;;		On entry : 0/0
  2968 ;;		On exit  : 0/0
  2969 ;;		Unchanged: 0/0
  2970 ;; Data sizes:     COMRAM   BANK0   BANK1   BANK2   BANK3   BANK4   BANK5   BANK6   BANK7   BANK8   BANK9  BANK10  BANK1
      +1  BANK12  BANK13  BANK14
  2971 ;;      Params:         0       0       0       0       0       0       0       0       0       0       0       0       
      +0       0       0       0
  2972 ;;      Locals:         0       0       0       0       0       0       0       0       0       0       0       0       
      +0       0       0       0
  2973 ;;      Temps:          0       0       0       0       0       0       0       0       0       0       0       0       
      +0       0       0       0
  2974 ;;      Totals:         0       0       0       0       0       0       0       0       0       0       0       0       
      +0       0       0       0
  2975 ;;Total ram usage:        0 bytes
  2976 ;; Hardware stack levels used:    1
  2977 ;; Hardware stack levels required when called:    3
  2978 ;; This function calls:
  2979 ;;		Nothing
  2980 ;; This function is called by:
  2981 ;;		_SendIR_Frame
  2982 ;; This function uses a non-reentrant model
  2983 ;;
  2984                           
  2985                           	psect	text27
  2986  000964                     __ptext27:
  2987                           	callstack 0
  2988  000964                     _DSM_ManualModulationClear:
  2989                           	callstack 25
  2990  000964                     
  2991                           ;mcc_generated_files/dsm.c: 99:     MDCON0bits.MDBIT = 0;
  2992  000964  010F               	movlb	15	; () banked
  2993  000966  914C               	bcf	76,0,b	;volatile
  2994  000968                     
  2995                           ; BSR set to: 15
  2996  000968  0012               	return		;funcret
  2997  00096A                     __end_of_DSM_ManualModulationClear:
  2998                           	callstack 0
  2999                           
  3000 ;; *************** function _Reverse *****************
  3001 ;; Defined at:
  3002 ;;		line 133 in file "application.c"
  3003 ;; Parameters:    Size  Location     Type
  3004 ;;  byteVar         1    wreg     unsigned char 
  3005 ;; Auto vars:     Size  Location     Type
  3006 ;;  byteVar         1    4[COMRAM] unsigned char 
  3007 ;; Return value:  Size  Location     Type
  3008 ;;                  1    wreg      unsigned char 
  3009 ;; Registers used:
  3010 ;;		wreg, status,2, status,0
  3011 ;; Tracked objects:
  3012 ;;		On entry : 0/0
  3013 ;;		On exit  : 0/0
  3014 ;;		Unchanged: 0/0
  3015 ;; Data sizes:     COMRAM   BANK0   BANK1   BANK2   BANK3   BANK4   BANK5   BANK6   BANK7   BANK8   BANK9  BANK10  BANK1
      +1  BANK12  BANK13  BANK14
  3016 ;;      Params:         0       0       0       0       0       0       0       0       0       0       0       0       
      +0       0       0       0
  3017 ;;      Locals:         1       0       0       0       0       0       0       0       0       0       0       0       
      +0       0       0       0
  3018 ;;      Temps:          2       0       0       0       0       0       0       0       0       0       0       0       
      +0       0       0       0
  3019 ;;      Totals:         3       0       0       0       0       0       0       0       0       0       0       0       
      +0       0       0       0
  3020 ;;Total ram usage:        3 bytes
  3021 ;; Hardware stack levels used:    1
  3022 ;; Hardware stack levels required when called:    3
  3023 ;; This function calls:
  3024 ;;		Nothing
  3025 ;; This function is called by:
  3026 ;;		_ApplicationTask
  3027 ;; This function uses a non-reentrant model
  3028 ;;
  3029                           
  3030                           	psect	text28
  3031  00059A                     __ptext28:
  3032                           	callstack 0
  3033  00059A                     _Reverse:
  3034                           	callstack 26
  3035                           
  3036                           ; BSR set to: 15
  3037                           ;incstack = 0
  3038                           ;Reverse@byteVar stored from wreg
  3039  00059A  6E1A               	movwf	Reverse@byteVar^0,c
  3040  00059C                     
  3041                           ;application.c: 133: static uint8_t Reverse(uint8_t byteVar);application.c: 134: {;appli
      +                          cation.c: 135:    byteVar = (byteVar & (uint8_t)0xF0) >> 4 | (byteVar & (uint8_t)0x0F) <
      +                          < 4;
  3042  00059C  C01A  F018         	movff	Reverse@byteVar,??_Reverse
  3043  0005A0  0E0F               	movlw	15
  3044  0005A2  1618               	andwf	??_Reverse^0,f,c
  3045  0005A4  3A18               	swapf	??_Reverse^0,f,c
  3046  0005A6  0EF0               	movlw	240
  3047  0005A8  1618               	andwf	??_Reverse^0,f,c
  3048  0005AA  381A               	swapf	Reverse@byteVar^0,w,c
  3049  0005AC  0B0F               	andlw	15
  3050  0005AE  0B0F               	andlw	15
  3051  0005B0  1018               	iorwf	??_Reverse^0,w,c
  3052  0005B2  6E1A               	movwf	Reverse@byteVar^0,c
  3053                           
  3054                           ;application.c: 136:    byteVar = (byteVar & (uint8_t)0xCC) >> 2 | (byteVar & (uint8_t)0
      +                          x33) << 2;
  3055  0005B4  C01A  F018         	movff	Reverse@byteVar,??_Reverse
  3056  0005B8  0E33               	movlw	51
  3057  0005BA  1618               	andwf	??_Reverse^0,f,c
  3058  0005BC  90D8               	bcf	status,0,c
  3059  0005BE  3618               	rlcf	??_Reverse^0,f,c
  3060  0005C0  90D8               	bcf	status,0,c
  3061  0005C2  3618               	rlcf	??_Reverse^0,f,c
  3062  0005C4  401A               	rrncf	Reverse@byteVar^0,w,c
  3063  0005C6  42E8               	rrncf	wreg,f,c
  3064  0005C8  0B3F               	andlw	63
  3065  0005CA  0B33               	andlw	51
  3066  0005CC  1018               	iorwf	??_Reverse^0,w,c
  3067  0005CE  6E1A               	movwf	Reverse@byteVar^0,c
  3068                           
  3069                           ;application.c: 137:    byteVar = (byteVar & (uint8_t)0xAA) >> 1 | (byteVar & (uint8_t)0
      +                          x55) << 1;
  3070  0005D0  C01A  F018         	movff	Reverse@byteVar,??_Reverse
  3071  0005D4  0E55               	movlw	85
  3072  0005D6  1618               	andwf	??_Reverse^0,f,c
  3073  0005D8  90D8               	bcf	status,0,c
  3074  0005DA  3418               	rlcf	??_Reverse^0,w,c
  3075  0005DC  6E19               	movwf	(??_Reverse+1)^0,c
  3076  0005DE  90D8               	bcf	status,0,c
  3077  0005E0  301A               	rrcf	Reverse@byteVar^0,w,c
  3078  0005E2  0B55               	andlw	85
  3079  0005E4  1019               	iorwf	(??_Reverse+1)^0,w,c
  3080  0005E6  6E1A               	movwf	Reverse@byteVar^0,c
  3081  0005E8                     
  3082                           ;application.c: 138:    return byteVar;
  3083  0005E8  501A               	movf	Reverse@byteVar^0,w,c
  3084  0005EA  0012               	return		;funcret
  3085  0005EC                     __end_of_Reverse:
  3086                           	callstack 0
  3087                           
  3088 ;; *************** function _Prepare_IR_NEC_Data *****************
  3089 ;; Defined at:
  3090 ;;		line 182 in file "application.c"
  3091 ;; Parameters:    Size  Location     Type
  3092 ;;  devAddress      1    wreg     unsigned char 
  3093 ;;  cmd             1    2[COMRAM] unsigned char 
  3094 ;; Auto vars:     Size  Location     Type
  3095 ;;  devAddress      1    7[COMRAM] unsigned char 
  3096 ;;  retData         4    8[COMRAM] unsigned long 
  3097 ;; Return value:  Size  Location     Type
  3098 ;;                  4    2[COMRAM] unsigned long 
  3099 ;; Registers used:
  3100 ;;		wreg, status,2, status,0
  3101 ;; Tracked objects:
  3102 ;;		On entry : 0/0
  3103 ;;		On exit  : 0/0
  3104 ;;		Unchanged: 0/0
  3105 ;; Data sizes:     COMRAM   BANK0   BANK1   BANK2   BANK3   BANK4   BANK5   BANK6   BANK7   BANK8   BANK9  BANK10  BANK1
      +1  BANK12  BANK13  BANK14
  3106 ;;      Params:         4       0       0       0       0       0       0       0       0       0       0       0       
      +0       0       0       0
  3107 ;;      Locals:         5       0       0       0       0       0       0       0       0       0       0       0       
      +0       0       0       0
  3108 ;;      Temps:          1       0       0       0       0       0       0       0       0       0       0       0       
      +0       0       0       0
  3109 ;;      Totals:        10       0       0       0       0       0       0       0       0       0       0       0       
      +0       0       0       0
  3110 ;;Total ram usage:       10 bytes
  3111 ;; Hardware stack levels used:    1
  3112 ;; Hardware stack levels required when called:    3
  3113 ;; This function calls:
  3114 ;;		Nothing
  3115 ;; This function is called by:
  3116 ;;		_ApplicationTask
  3117 ;; This function uses a non-reentrant model
  3118 ;;
  3119                           
  3120                           	psect	text29
  3121  00053A                     __ptext29:
  3122                           	callstack 0
  3123  00053A                     _Prepare_IR_NEC_Data:
  3124                           	callstack 26
  3125                           
  3126                           ;incstack = 0
  3127                           ;Prepare_IR_NEC_Data@devAddress stored from wreg
  3128  00053A  6E1D               	movwf	Prepare_IR_NEC_Data@devAddress^0,c
  3129  00053C                     
  3130                           ;application.c: 186:     retData = devAddress;
  3131  00053C  501D               	movf	Prepare_IR_NEC_Data@devAddress^0,w,c
  3132  00053E  6E1E               	movwf	Prepare_IR_NEC_Data@retData^0,c
  3133  000540  6A1F               	clrf	(Prepare_IR_NEC_Data@retData+1)^0,c
  3134  000542  6A20               	clrf	(Prepare_IR_NEC_Data@retData+2)^0,c
  3135  000544  6A21               	clrf	(Prepare_IR_NEC_Data@retData+3)^0,c
  3136  000546                     
  3137                           ;application.c: 187:     retData <<= 8;
  3138  000546  C020  F021         	movff	Prepare_IR_NEC_Data@retData+2,Prepare_IR_NEC_Data@retData+3
  3139  00054A  C01F  F020         	movff	Prepare_IR_NEC_Data@retData+1,Prepare_IR_NEC_Data@retData+2
  3140  00054E  C01E  F01F         	movff	Prepare_IR_NEC_Data@retData,Prepare_IR_NEC_Data@retData+1
  3141  000552  6A1E               	clrf	Prepare_IR_NEC_Data@retData^0,c
  3142  000554                     
  3143                           ;application.c: 188:     retData |= (uint8_t)~devAddress;
  3144  000554  501D               	movf	Prepare_IR_NEC_Data@devAddress^0,w,c
  3145  000556  0AFF               	xorlw	255
  3146  000558  6E1C               	movwf	??_Prepare_IR_NEC_Data^0,c
  3147  00055A  501C               	movf	??_Prepare_IR_NEC_Data^0,w,c
  3148  00055C  121E               	iorwf	Prepare_IR_NEC_Data@retData^0,f,c
  3149  00055E                     
  3150                           ;application.c: 189:     retData <<= 8;
  3151  00055E  C020  F021         	movff	Prepare_IR_NEC_Data@retData+2,Prepare_IR_NEC_Data@retData+3
  3152  000562  C01F  F020         	movff	Prepare_IR_NEC_Data@retData+1,Prepare_IR_NEC_Data@retData+2
  3153  000566  C01E  F01F         	movff	Prepare_IR_NEC_Data@retData,Prepare_IR_NEC_Data@retData+1
  3154  00056A  6A1E               	clrf	Prepare_IR_NEC_Data@retData^0,c
  3155  00056C                     
  3156                           ;application.c: 190:     retData |= (uint8_t)cmd;
  3157  00056C  5018               	movf	Prepare_IR_NEC_Data@cmd^0,w,c
  3158  00056E  121E               	iorwf	Prepare_IR_NEC_Data@retData^0,f,c
  3159  000570                     
  3160                           ;application.c: 191:     retData <<= 8;
  3161  000570  C020  F021         	movff	Prepare_IR_NEC_Data@retData+2,Prepare_IR_NEC_Data@retData+3
  3162  000574  C01F  F020         	movff	Prepare_IR_NEC_Data@retData+1,Prepare_IR_NEC_Data@retData+2
  3163  000578  C01E  F01F         	movff	Prepare_IR_NEC_Data@retData,Prepare_IR_NEC_Data@retData+1
  3164  00057C  6A1E               	clrf	Prepare_IR_NEC_Data@retData^0,c
  3165  00057E                     
  3166                           ;application.c: 192:     retData |= (uint8_t)~cmd;
  3167  00057E  5018               	movf	Prepare_IR_NEC_Data@cmd^0,w,c
  3168  000580  0AFF               	xorlw	255
  3169  000582  6E1C               	movwf	??_Prepare_IR_NEC_Data^0,c
  3170  000584  501C               	movf	??_Prepare_IR_NEC_Data^0,w,c
  3171  000586  121E               	iorwf	Prepare_IR_NEC_Data@retData^0,f,c
  3172  000588                     
  3173                           ;application.c: 193:     return retData;
  3174  000588  C01E  F018         	movff	Prepare_IR_NEC_Data@retData,?_Prepare_IR_NEC_Data
  3175  00058C  C01F  F019         	movff	Prepare_IR_NEC_Data@retData+1,?_Prepare_IR_NEC_Data+1
  3176  000590  C020  F01A         	movff	Prepare_IR_NEC_Data@retData+2,?_Prepare_IR_NEC_Data+2
  3177  000594  C021  F01B         	movff	Prepare_IR_NEC_Data@retData+3,?_Prepare_IR_NEC_Data+3
  3178  000598  0012               	return		;funcret
  3179  00059A                     __end_of_Prepare_IR_NEC_Data:
  3180                           	callstack 0
  3181                           
  3182 ;; *************** function _PrepareNewCMD *****************
  3183 ;; Defined at:
  3184 ;;		line 151 in file "application.c"
  3185 ;; Parameters:    Size  Location     Type
  3186 ;;  swNum           1    wreg     enum E12898
  3187 ;; Auto vars:     Size  Location     Type
  3188 ;;  swNum           1    2[COMRAM] enum E12898
  3189 ;;  newCommand      1    3[COMRAM] unsigned char 
  3190 ;; Return value:  Size  Location     Type
  3191 ;;                  1    wreg      unsigned char 
  3192 ;; Registers used:
  3193 ;;		wreg, status,2, status,0
  3194 ;; Tracked objects:
  3195 ;;		On entry : 0/0
  3196 ;;		On exit  : 0/0
  3197 ;;		Unchanged: 0/0
  3198 ;; Data sizes:     COMRAM   BANK0   BANK1   BANK2   BANK3   BANK4   BANK5   BANK6   BANK7   BANK8   BANK9  BANK10  BANK1
      +1  BANK12  BANK13  BANK14
  3199 ;;      Params:         0       0       0       0       0       0       0       0       0       0       0       0       
      +0       0       0       0
  3200 ;;      Locals:         2       0       0       0       0       0       0       0       0       0       0       0       
      +0       0       0       0
  3201 ;;      Temps:          0       0       0       0       0       0       0       0       0       0       0       0       
      +0       0       0       0
  3202 ;;      Totals:         2       0       0       0       0       0       0       0       0       0       0       0       
      +0       0       0       0
  3203 ;;Total ram usage:        2 bytes
  3204 ;; Hardware stack levels used:    1
  3205 ;; Hardware stack levels required when called:    3
  3206 ;; This function calls:
  3207 ;;		Nothing
  3208 ;; This function is called by:
  3209 ;;		_ApplicationTask
  3210 ;; This function uses a non-reentrant model
  3211 ;;
  3212                           
  3213                           	psect	text30
  3214  000664                     __ptext30:
  3215                           	callstack 0
  3216  000664                     _PrepareNewCMD:
  3217                           	callstack 26
  3218                           
  3219                           ;incstack = 0
  3220                           ;PrepareNewCMD@swNum stored from wreg
  3221  000664  6E18               	movwf	PrepareNewCMD@swNum^0,c
  3222  000666                     
  3223                           ;application.c: 151: static uint8_t PrepareNewCMD (e_key swNum);application.c: 152: {;ap
      +                          plication.c: 153:    static uint8_t sw1PressedIndex;;application.c: 155:    uint8_t newC
      +                          ommand = 0;
  3224  000666  0E00               	movlw	0
  3225  000668  6E19               	movwf	PrepareNewCMD@newCommand^0,c
  3226  00066A                     
  3227                           ;application.c: 157:         if (swNum == SW1)
  3228  00066A  0418               	decf	PrepareNewCMD@swNum^0,w,c
  3229  00066C  A4D8               	btfss	status,2,c
  3230  00066E  EF3B  F003         	goto	u11
  3231  000672  EF3D  F003         	goto	u10
  3232  000676                     u11:
  3233  000676  EF4B  F003         	goto	l744
  3234  00067A                     u10:
  3235  00067A                     
  3236                           ;application.c: 158:         {;application.c: 159:             sw1PressedIndex++;
  3237  00067A  2A0D               	incf	PrepareNewCMD@sw1PressedIndex^0,f,c
  3238  00067C                     
  3239                           ;application.c: 161:             newCommand = sw1PressedIndex+(uint8_t)0x80;
  3240  00067C  500D               	movf	PrepareNewCMD@sw1PressedIndex^0,w,c
  3241  00067E  0F80               	addlw	128
  3242  000680  6E19               	movwf	PrepareNewCMD@newCommand^0,c
  3243  000682                     
  3244                           ;application.c: 162:             if(sw1PressedIndex>=(uint8_t)8)
  3245  000682  0E07               	movlw	7
  3246  000684  640D               	cpfsgt	PrepareNewCMD@sw1PressedIndex^0,c
  3247  000686  EF47  F003         	goto	u21
  3248  00068A  EF49  F003         	goto	u20
  3249  00068E                     u21:
  3250  00068E  EF4B  F003         	goto	l744
  3251  000692                     u20:
  3252  000692                     
  3253                           ;application.c: 163:             {;application.c: 164:                 sw1PressedIndex=0
      +                          ;
  3254  000692  0E00               	movlw	0
  3255  000694  6E0D               	movwf	PrepareNewCMD@sw1PressedIndex^0,c
  3256  000696                     l744:
  3257                           
  3258                           ;application.c: 167:    return newCommand;
  3259  000696  5019               	movf	PrepareNewCMD@newCommand^0,w,c
  3260  000698  0012               	return		;funcret
  3261  00069A                     __end_of_PrepareNewCMD:
  3262                           	callstack 0
  3263                           
  3264 ;; *************** function _GetEvent *****************
  3265 ;; Defined at:
  3266 ;;		line 371 in file "application.c"
  3267 ;; Parameters:    Size  Location     Type
  3268 ;;		None
  3269 ;; Auto vars:     Size  Location     Type
  3270 ;;		None
  3271 ;; Return value:  Size  Location     Type
  3272 ;;                  1    wreg      enum E12892
  3273 ;; Registers used:
  3274 ;;		wreg, status,2
  3275 ;; Tracked objects:
  3276 ;;		On entry : 0/0
  3277 ;;		On exit  : 0/0
  3278 ;;		Unchanged: 0/0
  3279 ;; Data sizes:     COMRAM   BANK0   BANK1   BANK2   BANK3   BANK4   BANK5   BANK6   BANK7   BANK8   BANK9  BANK10  BANK1
      +1  BANK12  BANK13  BANK14
  3280 ;;      Params:         0       0       0       0       0       0       0       0       0       0       0       0       
      +0       0       0       0
  3281 ;;      Locals:         0       0       0       0       0       0       0       0       0       0       0       0       
      +0       0       0       0
  3282 ;;      Temps:          0       0       0       0       0       0       0       0       0       0       0       0       
      +0       0       0       0
  3283 ;;      Totals:         0       0       0       0       0       0       0       0       0       0       0       0       
      +0       0       0       0
  3284 ;;Total ram usage:        0 bytes
  3285 ;; Hardware stack levels used:    1
  3286 ;; Hardware stack levels required when called:    3
  3287 ;; This function calls:
  3288 ;;		Nothing
  3289 ;; This function is called by:
  3290 ;;		_ApplicationTask
  3291 ;; This function uses a non-reentrant model
  3292 ;;
  3293                           
  3294                           	psect	text31
  3295  000982                     __ptext31:
  3296                           	callstack 0
  3297  000982                     _GetEvent:
  3298                           	callstack 26
  3299  000982                     
  3300                           ;application.c: 373:     return event.keyStatus;
  3301  000982  500A               	movf	(_event+1)^0,w,c
  3302  000984  0012               	return		;funcret
  3303  000986                     __end_of_GetEvent:
  3304                           	callstack 0
  3305                           
  3306 ;; *************** function _GetButton *****************
  3307 ;; Defined at:
  3308 ;;		line 403 in file "application.c"
  3309 ;; Parameters:    Size  Location     Type
  3310 ;;		None
  3311 ;; Auto vars:     Size  Location     Type
  3312 ;;		None
  3313 ;; Return value:  Size  Location     Type
  3314 ;;                  1    wreg      enum E12898
  3315 ;; Registers used:
  3316 ;;		wreg, status,2
  3317 ;; Tracked objects:
  3318 ;;		On entry : 0/0
  3319 ;;		On exit  : 0/0
  3320 ;;		Unchanged: 0/0
  3321 ;; Data sizes:     COMRAM   BANK0   BANK1   BANK2   BANK3   BANK4   BANK5   BANK6   BANK7   BANK8   BANK9  BANK10  BANK1
      +1  BANK12  BANK13  BANK14
  3322 ;;      Params:         0       0       0       0       0       0       0       0       0       0       0       0       
      +0       0       0       0
  3323 ;;      Locals:         0       0       0       0       0       0       0       0       0       0       0       0       
      +0       0       0       0
  3324 ;;      Temps:          0       0       0       0       0       0       0       0       0       0       0       0       
      +0       0       0       0
  3325 ;;      Totals:         0       0       0       0       0       0       0       0       0       0       0       0       
      +0       0       0       0
  3326 ;;Total ram usage:        0 bytes
  3327 ;; Hardware stack levels used:    1
  3328 ;; Hardware stack levels required when called:    3
  3329 ;; This function calls:
  3330 ;;		Nothing
  3331 ;; This function is called by:
  3332 ;;		_ApplicationTask
  3333 ;; This function uses a non-reentrant model
  3334 ;;
  3335                           
  3336                           	psect	text32
  3337  000986                     __ptext32:
  3338                           	callstack 0
  3339  000986                     _GetButton:
  3340                           	callstack 26
  3341  000986                     
  3342                           ;application.c: 405:     return event.key;
  3343  000986  5009               	movf	_event^0,w,c
  3344  000988  0012               	return		;funcret
  3345  00098A                     __end_of_GetButton:
  3346                           	callstack 0
  3347                           
  3348 ;; *************** function _ClearEvent *****************
  3349 ;; Defined at:
  3350 ;;		line 388 in file "application.c"
  3351 ;; Parameters:    Size  Location     Type
  3352 ;;		None
  3353 ;; Auto vars:     Size  Location     Type
  3354 ;;		None
  3355 ;; Return value:  Size  Location     Type
  3356 ;;                  1    wreg      void 
  3357 ;; Registers used:
  3358 ;;		wreg, status,2
  3359 ;; Tracked objects:
  3360 ;;		On entry : 0/0
  3361 ;;		On exit  : 0/0
  3362 ;;		Unchanged: 0/0
  3363 ;; Data sizes:     COMRAM   BANK0   BANK1   BANK2   BANK3   BANK4   BANK5   BANK6   BANK7   BANK8   BANK9  BANK10  BANK1
      +1  BANK12  BANK13  BANK14
  3364 ;;      Params:         0       0       0       0       0       0       0       0       0       0       0       0       
      +0       0       0       0
  3365 ;;      Locals:         0       0       0       0       0       0       0       0       0       0       0       0       
      +0       0       0       0
  3366 ;;      Temps:          0       0       0       0       0       0       0       0       0       0       0       0       
      +0       0       0       0
  3367 ;;      Totals:         0       0       0       0       0       0       0       0       0       0       0       0       
      +0       0       0       0
  3368 ;;Total ram usage:        0 bytes
  3369 ;; Hardware stack levels used:    1
  3370 ;; Hardware stack levels required when called:    3
  3371 ;; This function calls:
  3372 ;;		Nothing
  3373 ;; This function is called by:
  3374 ;;		_ApplicationTask
  3375 ;; This function uses a non-reentrant model
  3376 ;;
  3377                           
  3378                           	psect	text33
  3379  00096A                     __ptext33:
  3380                           	callstack 0
  3381  00096A                     _ClearEvent:
  3382                           	callstack 26
  3383  00096A                     
  3384                           ;application.c: 390:     event.keyStatus = KEY_NO_ACTION;
  3385  00096A  0E00               	movlw	0
  3386  00096C  6E0A               	movwf	(_event+1)^0,c
  3387  00096E  0012               	return		;funcret
  3388  000970                     __end_of_ClearEvent:
  3389                           	callstack 0
  3390                           
  3391 ;; *************** function _ClearButton *****************
  3392 ;; Defined at:
  3393 ;;		line 419 in file "application.c"
  3394 ;; Parameters:    Size  Location     Type
  3395 ;;		None
  3396 ;; Auto vars:     Size  Location     Type
  3397 ;;		None
  3398 ;; Return value:  Size  Location     Type
  3399 ;;                  1    wreg      void 
  3400 ;; Registers used:
  3401 ;;		wreg, status,2
  3402 ;; Tracked objects:
  3403 ;;		On entry : 0/0
  3404 ;;		On exit  : 0/0
  3405 ;;		Unchanged: 0/0
  3406 ;; Data sizes:     COMRAM   BANK0   BANK1   BANK2   BANK3   BANK4   BANK5   BANK6   BANK7   BANK8   BANK9  BANK10  BANK1
      +1  BANK12  BANK13  BANK14
  3407 ;;      Params:         0       0       0       0       0       0       0       0       0       0       0       0       
      +0       0       0       0
  3408 ;;      Locals:         0       0       0       0       0       0       0       0       0       0       0       0       
      +0       0       0       0
  3409 ;;      Temps:          0       0       0       0       0       0       0       0       0       0       0       0       
      +0       0       0       0
  3410 ;;      Totals:         0       0       0       0       0       0       0       0       0       0       0       0       
      +0       0       0       0
  3411 ;;Total ram usage:        0 bytes
  3412 ;; Hardware stack levels used:    1
  3413 ;; Hardware stack levels required when called:    3
  3414 ;; This function calls:
  3415 ;;		Nothing
  3416 ;; This function is called by:
  3417 ;;		_ApplicationTask
  3418 ;; This function uses a non-reentrant model
  3419 ;;
  3420                           
  3421                           	psect	text34
  3422  000970                     __ptext34:
  3423                           	callstack 0
  3424  000970                     _ClearButton:
  3425                           	callstack 26
  3426  000970                     
  3427                           ;application.c: 421:     event.key = NO_KEY;
  3428  000970  0E00               	movlw	0
  3429  000972  6E09               	movwf	_event^0,c
  3430  000974  0012               	return		;funcret
  3431  000976                     __end_of_ClearButton:
  3432                           	callstack 0
  3433                           
  3434 ;; *************** function _INTERRUPT_InterruptManager *****************
  3435 ;; Defined at:
  3436 ;;		line 58 in file "mcc_generated_files/interrupt_manager.c"
  3437 ;; Parameters:    Size  Location     Type
  3438 ;;		None
  3439 ;; Auto vars:     Size  Location     Type
  3440 ;;		None
  3441 ;; Return value:  Size  Location     Type
  3442 ;;                  1    wreg      void 
  3443 ;; Registers used:
  3444 ;;		wreg, status,2, status,0, pclath, tosl, cstack
  3445 ;; Tracked objects:
  3446 ;;		On entry : 0/0
  3447 ;;		On exit  : 0/0
  3448 ;;		Unchanged: 0/0
  3449 ;; Data sizes:     COMRAM   BANK0   BANK1   BANK2   BANK3   BANK4   BANK5   BANK6   BANK7   BANK8   BANK9  BANK10  BANK1
      +1  BANK12  BANK13  BANK14
  3450 ;;      Params:         0       0       0       0       0       0       0       0       0       0       0       0       
      +0       0       0       0
  3451 ;;      Locals:         0       0       0       0       0       0       0       0       0       0       0       0       
      +0       0       0       0
  3452 ;;      Temps:          2       0       0       0       0       0       0       0       0       0       0       0       
      +0       0       0       0
  3453 ;;      Totals:         2       0       0       0       0       0       0       0       0       0       0       0       
      +0       0       0       0
  3454 ;;Total ram usage:        2 bytes
  3455 ;; Hardware stack levels used:    1
  3456 ;; Hardware stack levels required when called:    2
  3457 ;; This function calls:
  3458 ;;		_CLC1_ISR
  3459 ;;		_CLC5_ISR
  3460 ;;		_TMR0_ISR
  3461 ;;		_TMR4_ISR
  3462 ;; This function is called by:
  3463 ;;		Interrupt level 2
  3464 ;; This function uses a non-reentrant model
  3465 ;;
  3466                           
  3467                           	psect	intcode
  3468  000008                     __pintcode:
  3469                           	callstack 0
  3470  000008                     _INTERRUPT_InterruptManager:
  3471                           	callstack 25
  3472                           
  3473                           ;incstack = 0
  3474  000008  822B               	bsf	int$flags,1,c	;set compiler interrupt flag (level 2)
  3475  00000A  CFFA F016          	movff	pclath,??_INTERRUPT_InterruptManager
  3476  00000E  CFFB F017          	movff	pclatu,??_INTERRUPT_InterruptManager+1
  3477  000012                     
  3478                           ;mcc_generated_files/interrupt_manager.c: 61:     if(PIE0bits.TMR0IE == 1 && PIR0bits.TM
      +                          R0IF == 1)
  3479  000012  010E               	movlb	14	; () banked
  3480  000014  ABBD               	btfss	189,5,b	;volatile
  3481  000016  EF0F  F000         	goto	i2u59_41
  3482  00001A  EF11  F000         	goto	i2u59_40
  3483  00001E                     i2u59_41:
  3484  00001E  EF1C  F000         	goto	i2l116
  3485  000022                     i2u59_40:
  3486  000022                     
  3487                           ; BSR set to: 14
  3488  000022  ABC5               	btfss	197,5,b	;volatile
  3489  000024  EF16  F000         	goto	i2u60_41
  3490  000028  EF18  F000         	goto	i2u60_40
  3491  00002C                     i2u60_41:
  3492  00002C  EF1C  F000         	goto	i2l116
  3493  000030                     i2u60_40:
  3494  000030                     
  3495                           ; BSR set to: 14
  3496                           ;mcc_generated_files/interrupt_manager.c: 62:     {;mcc_generated_files/interrupt_manage
      +                          r.c: 63:         TMR0_ISR();
  3497  000030  EC67  F003         	call	_TMR0_ISR	;wreg free
  3498                           
  3499                           ;mcc_generated_files/interrupt_manager.c: 64:     }
  3500  000034  EF59  F000         	goto	i2l126
  3501  000038                     i2l116:
  3502                           
  3503                           ; BSR set to: 14
  3504  000038  ACF2               	btfss	242,6,c	;volatile
  3505  00003A  EF21  F000         	goto	i2u61_41
  3506  00003E  EF23  F000         	goto	i2u61_40
  3507  000042                     i2u61_41:
  3508  000042  EF59  F000         	goto	i2l126
  3509  000046                     i2u61_40:
  3510  000046                     
  3511                           ; BSR set to: 14
  3512                           ;mcc_generated_files/interrupt_manager.c: 66:     {;mcc_generated_files/interrupt_manage
      +                          r.c: 67:         if(PIE6bits.CLC5IE == 1 && PIR6bits.CLC5IF == 1)
  3513  000046  A9C3               	btfss	195,4,b	;volatile
  3514  000048  EF28  F000         	goto	i2u62_41
  3515  00004C  EF2A  F000         	goto	i2u62_40
  3516  000050                     i2u62_41:
  3517  000050  EF35  F000         	goto	i2l119
  3518  000054                     i2u62_40:
  3519  000054                     
  3520                           ; BSR set to: 14
  3521  000054  A9CB               	btfss	203,4,b	;volatile
  3522  000056  EF2F  F000         	goto	i2u63_41
  3523  00005A  EF31  F000         	goto	i2u63_40
  3524  00005E                     i2u63_41:
  3525  00005E  EF35  F000         	goto	i2l119
  3526  000062                     i2u63_40:
  3527  000062                     
  3528                           ; BSR set to: 14
  3529                           ;mcc_generated_files/interrupt_manager.c: 68:         {;mcc_generated_files/interrupt_ma
      +                          nager.c: 69:             CLC5_ISR();
  3530  000062  ECA0  F004         	call	_CLC5_ISR	;wreg free
  3531                           
  3532                           ;mcc_generated_files/interrupt_manager.c: 70:         }
  3533  000066  EF59  F000         	goto	i2l126
  3534  00006A                     i2l119:
  3535                           
  3536                           ; BSR set to: 14
  3537  00006A  A9C2               	btfss	194,4,b	;volatile
  3538  00006C  EF3A  F000         	goto	i2u64_41
  3539  000070  EF3C  F000         	goto	i2u64_40
  3540  000074                     i2u64_41:
  3541  000074  EF47  F000         	goto	i2l121
  3542  000078                     i2u64_40:
  3543  000078                     
  3544                           ; BSR set to: 14
  3545  000078  A9CA               	btfss	202,4,b	;volatile
  3546  00007A  EF41  F000         	goto	i2u65_41
  3547  00007E  EF43  F000         	goto	i2u65_40
  3548  000082                     i2u65_41:
  3549  000082  EF47  F000         	goto	i2l121
  3550  000086                     i2u65_40:
  3551  000086                     
  3552                           ; BSR set to: 14
  3553                           ;mcc_generated_files/interrupt_manager.c: 72:         {;mcc_generated_files/interrupt_ma
      +                          nager.c: 73:             CLC1_ISR();
  3554  000086  EC1F  F004         	call	_CLC1_ISR	;wreg free
  3555                           
  3556                           ;mcc_generated_files/interrupt_manager.c: 74:         }
  3557  00008A  EF59  F000         	goto	i2l126
  3558  00008E                     i2l121:
  3559                           
  3560                           ; BSR set to: 14
  3561  00008E  A7C1               	btfss	193,3,b	;volatile
  3562  000090  EF4C  F000         	goto	i2u66_41
  3563  000094  EF4E  F000         	goto	i2u66_40
  3564  000098                     i2u66_41:
  3565  000098  EF59  F000         	goto	i2l120
  3566  00009C                     i2u66_40:
  3567  00009C                     
  3568                           ; BSR set to: 14
  3569  00009C  A7C9               	btfss	201,3,b	;volatile
  3570  00009E  EF53  F000         	goto	i2u67_41
  3571  0000A2  EF55  F000         	goto	i2u67_40
  3572  0000A6                     i2u67_41:
  3573  0000A6  EF59  F000         	goto	i2l120
  3574  0000AA                     i2u67_40:
  3575  0000AA                     
  3576                           ; BSR set to: 14
  3577                           ;mcc_generated_files/interrupt_manager.c: 76:         {;mcc_generated_files/interrupt_ma
      +                          nager.c: 77:             TMR4_ISR();
  3578  0000AA  EC4D  F003         	call	_TMR4_ISR	;wreg free
  3579                           
  3580                           ;mcc_generated_files/interrupt_manager.c: 78:         }
  3581  0000AE  EF59  F000         	goto	i2l126
  3582  0000B2                     i2l120:
  3583  0000B2                     i2l126:
  3584  0000B2  C017  FFFB         	movff	??_INTERRUPT_InterruptManager+1,pclatu
  3585  0000B6  C016  FFFA         	movff	??_INTERRUPT_InterruptManager,pclath
  3586  0000BA  922B               	bcf	int$flags,1,c	;clear compiler interrupt flag (level 2)
  3587  0000BC  0011               	retfie		f
  3588  0000BE                     __end_of_INTERRUPT_InterruptManager:
  3589                           	callstack 0
  3590                           
  3591 ;; *************** function _TMR4_ISR *****************
  3592 ;; Defined at:
  3593 ;;		line 168 in file "mcc_generated_files/tmr4.c"
  3594 ;; Parameters:    Size  Location     Type
  3595 ;;		None
  3596 ;; Auto vars:     Size  Location     Type
  3597 ;;		None
  3598 ;; Return value:  Size  Location     Type
  3599 ;;                  1    wreg      void 
  3600 ;; Registers used:
  3601 ;;		wreg, status,2, status,0, pclath, tosl, cstack
  3602 ;; Tracked objects:
  3603 ;;		On entry : 0/0
  3604 ;;		On exit  : 0/0
  3605 ;;		Unchanged: 0/0
  3606 ;; Data sizes:     COMRAM   BANK0   BANK1   BANK2   BANK3   BANK4   BANK5   BANK6   BANK7   BANK8   BANK9  BANK10  BANK1
      +1  BANK12  BANK13  BANK14
  3607 ;;      Params:         0       0       0       0       0       0       0       0       0       0       0       0       
      +0       0       0       0
  3608 ;;      Locals:         0       0       0       0       0       0       0       0       0       0       0       0       
      +0       0       0       0
  3609 ;;      Temps:          0       0       0       0       0       0       0       0       0       0       0       0       
      +0       0       0       0
  3610 ;;      Totals:         0       0       0       0       0       0       0       0       0       0       0       0       
      +0       0       0       0
  3611 ;;Total ram usage:        0 bytes
  3612 ;; Hardware stack levels used:    1
  3613 ;; Hardware stack levels required when called:    1
  3614 ;; This function calls:
  3615 ;;		Absolute function
  3616 ;;		_TMR4_DefaultInterruptHandler
  3617 ;;		_TMR4_UserInterruptHandler
  3618 ;; This function is called by:
  3619 ;;		_INTERRUPT_InterruptManager
  3620 ;; This function uses a non-reentrant model
  3621 ;;
  3622                           
  3623                           	psect	text36
  3624  00069A                     __ptext36:
  3625                           	callstack 0
  3626  00069A                     _TMR4_ISR:
  3627                           	callstack 25
  3628  00069A                     
  3629                           ;mcc_generated_files/tmr4.c: 172:     PIR4bits.TMR4IF = 0;
  3630  00069A  010E               	movlb	14	; () banked
  3631  00069C  97C9               	bcf	201,3,b	;volatile
  3632  00069E                     
  3633                           ; BSR set to: 14
  3634                           ;mcc_generated_files/tmr4.c: 174:     if(TMR4_InterruptHandler)
  3635  00069E  5025               	movf	_TMR4_InterruptHandler^0,w,c
  3636  0006A0  1026               	iorwf	(_TMR4_InterruptHandler+1)^0,w,c
  3637  0006A2  1027               	iorwf	(_TMR4_InterruptHandler+2)^0,w,c
  3638  0006A4  B4D8               	btfsc	status,2,c
  3639  0006A6  EF57  F003         	goto	i2u50_41
  3640  0006AA  EF59  F003         	goto	i2u50_40
  3641  0006AE                     i2u50_41:
  3642  0006AE  EF66  F003         	goto	i2l445
  3643  0006B2                     i2u50_40:
  3644  0006B2                     
  3645                           ; BSR set to: 14
  3646                           ;mcc_generated_files/tmr4.c: 175:     {;mcc_generated_files/tmr4.c: 176:         TMR4_In
      +                          terruptHandler();
  3647  0006B2  D802               	call	i2u51_48
  3648  0006B4  EF66  F003         	goto	i2u51_49
  3649  0006B8                     i2u51_48:
  3650  0006B8  0005               	push	
  3651  0006BA  6EFA               	movwf	pclath,c
  3652  0006BC  5025               	movf	_TMR4_InterruptHandler^0,w,c
  3653  0006BE  6EFD               	movwf	tosl,c
  3654  0006C0  5026               	movf	(_TMR4_InterruptHandler+1)^0,w,c
  3655  0006C2  6EFE               	movwf	tosh,c
  3656  0006C4  5027               	movf	(_TMR4_InterruptHandler+2)^0,w,c
  3657  0006C6  6EFF               	movwf	tosu,c
  3658  0006C8  50FA               	movf	pclath,w,c
  3659  0006CA  0012               	return		;indir
  3660  0006CC                     i2u51_49:
  3661  0006CC                     i2l445:
  3662  0006CC  0012               	return		;funcret
  3663  0006CE                     __end_of_TMR4_ISR:
  3664                           	callstack 0
  3665                           
  3666 ;; *************** function _TMR4_DefaultInterruptHandler *****************
  3667 ;; Defined at:
  3668 ;;		line 185 in file "mcc_generated_files/tmr4.c"
  3669 ;; Parameters:    Size  Location     Type
  3670 ;;		None
  3671 ;; Auto vars:     Size  Location     Type
  3672 ;;		None
  3673 ;; Return value:  Size  Location     Type
  3674 ;;                  1    wreg      void 
  3675 ;; Registers used:
  3676 ;;		wreg, status,2
  3677 ;; Tracked objects:
  3678 ;;		On entry : 0/0
  3679 ;;		On exit  : 0/0
  3680 ;;		Unchanged: 0/0
  3681 ;; Data sizes:     COMRAM   BANK0   BANK1   BANK2   BANK3   BANK4   BANK5   BANK6   BANK7   BANK8   BANK9  BANK10  BANK1
      +1  BANK12  BANK13  BANK14
  3682 ;;      Params:         0       0       0       0       0       0       0       0       0       0       0       0       
      +0       0       0       0
  3683 ;;      Locals:         0       0       0       0       0       0       0       0       0       0       0       0       
      +0       0       0       0
  3684 ;;      Temps:          0       0       0       0       0       0       0       0       0       0       0       0       
      +0       0       0       0
  3685 ;;      Totals:         0       0       0       0       0       0       0       0       0       0       0       0       
      +0       0       0       0
  3686 ;;Total ram usage:        0 bytes
  3687 ;; Hardware stack levels used:    1
  3688 ;; This function calls:
  3689 ;;		Nothing
  3690 ;; This function is called by:
  3691 ;;		_TMR4_Initialize
  3692 ;;		_TMR4_ISR
  3693 ;; This function uses a non-reentrant model
  3694 ;;
  3695                           
  3696                           	psect	text37
  3697  00092C                     __ptext37:
  3698                           	callstack 0
  3699  00092C                     _TMR4_DefaultInterruptHandler:
  3700                           	callstack 25
  3701  00092C                     
  3702                           ;mcc_generated_files/tmr4.c: 188:     event.key = SW1;
  3703  00092C  0E01               	movlw	1
  3704  00092E  6E09               	movwf	_event^0,c
  3705                           
  3706                           ;mcc_generated_files/tmr4.c: 189:     event.keyStatus = KEY_PRESSED;
  3707  000930  0E01               	movlw	1
  3708  000932  6E0A               	movwf	(_event+1)^0,c
  3709  000934  0012               	return		;funcret
  3710  000936                     __end_of_TMR4_DefaultInterruptHandler:
  3711                           	callstack 0
  3712                           
  3713 ;; *************** function _TMR4_UserInterruptHandler *****************
  3714 ;; Defined at:
  3715 ;;		line 445 in file "application.c"
  3716 ;; Parameters:    Size  Location     Type
  3717 ;;		None
  3718 ;; Auto vars:     Size  Location     Type
  3719 ;;		None
  3720 ;; Return value:  Size  Location     Type
  3721 ;;                  1    wreg      void 
  3722 ;; Registers used:
  3723 ;;		wreg, status,2
  3724 ;; Tracked objects:
  3725 ;;		On entry : 0/0
  3726 ;;		On exit  : 0/0
  3727 ;;		Unchanged: 0/0
  3728 ;; Data sizes:     COMRAM   BANK0   BANK1   BANK2   BANK3   BANK4   BANK5   BANK6   BANK7   BANK8   BANK9  BANK10  BANK1
      +1  BANK12  BANK13  BANK14
  3729 ;;      Params:         0       0       0       0       0       0       0       0       0       0       0       0       
      +0       0       0       0
  3730 ;;      Locals:         0       0       0       0       0       0       0       0       0       0       0       0       
      +0       0       0       0
  3731 ;;      Temps:          0       0       0       0       0       0       0       0       0       0       0       0       
      +0       0       0       0
  3732 ;;      Totals:         0       0       0       0       0       0       0       0       0       0       0       0       
      +0       0       0       0
  3733 ;;Total ram usage:        0 bytes
  3734 ;; Hardware stack levels used:    1
  3735 ;; This function calls:
  3736 ;;		Nothing
  3737 ;; This function is called by:
  3738 ;;		_main
  3739 ;;		_TMR4_ISR
  3740 ;; This function uses a non-reentrant model
  3741 ;;
  3742                           
  3743                           	psect	text38
  3744  000936                     __ptext38:
  3745                           	callstack 0
  3746  000936                     _TMR4_UserInterruptHandler:
  3747                           	callstack 25
  3748  000936                     
  3749                           ;application.c: 447:     event.key = SW1;
  3750  000936  0E01               	movlw	1
  3751  000938  6E09               	movwf	_event^0,c
  3752                           
  3753                           ;application.c: 448:     event.keyStatus = KEY_PRESSED;
  3754  00093A  0E01               	movlw	1
  3755  00093C  6E0A               	movwf	(_event+1)^0,c
  3756  00093E  0012               	return		;funcret
  3757  000940                     __end_of_TMR4_UserInterruptHandler:
  3758                           	callstack 0
  3759                           
  3760 ;; *************** function _TMR0_ISR *****************
  3761 ;; Defined at:
  3762 ;;		line 122 in file "mcc_generated_files/tmr0.c"
  3763 ;; Parameters:    Size  Location     Type
  3764 ;;		None
  3765 ;; Auto vars:     Size  Location     Type
  3766 ;;		None
  3767 ;; Return value:  Size  Location     Type
  3768 ;;                  1    wreg      void 
  3769 ;; Registers used:
  3770 ;;		wreg, status,2, status,0, pclath, tosl, cstack
  3771 ;; Tracked objects:
  3772 ;;		On entry : 0/0
  3773 ;;		On exit  : 0/0
  3774 ;;		Unchanged: 0/0
  3775 ;; Data sizes:     COMRAM   BANK0   BANK1   BANK2   BANK3   BANK4   BANK5   BANK6   BANK7   BANK8   BANK9  BANK10  BANK1
      +1  BANK12  BANK13  BANK14
  3776 ;;      Params:         0       0       0       0       0       0       0       0       0       0       0       0       
      +0       0       0       0
  3777 ;;      Locals:         0       0       0       0       0       0       0       0       0       0       0       0       
      +0       0       0       0
  3778 ;;      Temps:          0       0       0       0       0       0       0       0       0       0       0       0       
      +0       0       0       0
  3779 ;;      Totals:         0       0       0       0       0       0       0       0       0       0       0       0       
      +0       0       0       0
  3780 ;;Total ram usage:        0 bytes
  3781 ;; Hardware stack levels used:    1
  3782 ;; Hardware stack levels required when called:    1
  3783 ;; This function calls:
  3784 ;;		Absolute function
  3785 ;;		_TMR0_DefaultInterruptHandler
  3786 ;;		_TMR0_UserInterruptHandler
  3787 ;; This function is called by:
  3788 ;;		_INTERRUPT_InterruptManager
  3789 ;; This function uses a non-reentrant model
  3790 ;;
  3791                           
  3792                           	psect	text39
  3793  0006CE                     __ptext39:
  3794                           	callstack 0
  3795  0006CE                     _TMR0_ISR:
  3796                           	callstack 25
  3797  0006CE                     
  3798                           ;mcc_generated_files/tmr0.c: 125:     PIR0bits.TMR0IF = 0;
  3799  0006CE  010E               	movlb	14	; () banked
  3800  0006D0  9BC5               	bcf	197,5,b	;volatile
  3801  0006D2                     
  3802                           ; BSR set to: 14
  3803                           ;mcc_generated_files/tmr0.c: 126:     if(TMR0_InterruptHandler)
  3804  0006D2  5028               	movf	_TMR0_InterruptHandler^0,w,c
  3805  0006D4  1029               	iorwf	(_TMR0_InterruptHandler+1)^0,w,c
  3806  0006D6  102A               	iorwf	(_TMR0_InterruptHandler+2)^0,w,c
  3807  0006D8  B4D8               	btfsc	status,2,c
  3808  0006DA  EF71  F003         	goto	i2u14_41
  3809  0006DE  EF73  F003         	goto	i2u14_40
  3810  0006E2                     i2u14_41:
  3811  0006E2  EF80  F003         	goto	i2l362
  3812  0006E6                     i2u14_40:
  3813  0006E6                     
  3814                           ; BSR set to: 14
  3815                           ;mcc_generated_files/tmr0.c: 127:     {;mcc_generated_files/tmr0.c: 128:         TMR0_In
      +                          terruptHandler();
  3816  0006E6  D802               	call	i2u15_48
  3817  0006E8  EF80  F003         	goto	i2u15_49
  3818  0006EC                     i2u15_48:
  3819  0006EC  0005               	push	
  3820  0006EE  6EFA               	movwf	pclath,c
  3821  0006F0  5028               	movf	_TMR0_InterruptHandler^0,w,c
  3822  0006F2  6EFD               	movwf	tosl,c
  3823  0006F4  5029               	movf	(_TMR0_InterruptHandler+1)^0,w,c
  3824  0006F6  6EFE               	movwf	tosh,c
  3825  0006F8  502A               	movf	(_TMR0_InterruptHandler+2)^0,w,c
  3826  0006FA  6EFF               	movwf	tosu,c
  3827  0006FC  50FA               	movf	pclath,w,c
  3828  0006FE  0012               	return		;indir
  3829  000700                     i2u15_49:
  3830  000700                     i2l362:
  3831  000700  0012               	return		;funcret
  3832  000702                     __end_of_TMR0_ISR:
  3833                           	callstack 0
  3834                           
  3835 ;; *************** function _TMR0_DefaultInterruptHandler *****************
  3836 ;; Defined at:
  3837 ;;		line 139 in file "mcc_generated_files/tmr0.c"
  3838 ;; Parameters:    Size  Location     Type
  3839 ;;		None
  3840 ;; Auto vars:     Size  Location     Type
  3841 ;;		None
  3842 ;; Return value:  Size  Location     Type
  3843 ;;                  1    wreg      void 
  3844 ;; Registers used:
  3845 ;;		status,2, status,0
  3846 ;; Tracked objects:
  3847 ;;		On entry : 0/0
  3848 ;;		On exit  : 0/0
  3849 ;;		Unchanged: 0/0
  3850 ;; Data sizes:     COMRAM   BANK0   BANK1   BANK2   BANK3   BANK4   BANK5   BANK6   BANK7   BANK8   BANK9  BANK10  BANK1
      +1  BANK12  BANK13  BANK14
  3851 ;;      Params:         0       0       0       0       0       0       0       0       0       0       0       0       
      +0       0       0       0
  3852 ;;      Locals:         0       0       0       0       0       0       0       0       0       0       0       0       
      +0       0       0       0
  3853 ;;      Temps:          0       0       0       0       0       0       0       0       0       0       0       0       
      +0       0       0       0
  3854 ;;      Totals:         0       0       0       0       0       0       0       0       0       0       0       0       
      +0       0       0       0
  3855 ;;Total ram usage:        0 bytes
  3856 ;; Hardware stack levels used:    1
  3857 ;; This function calls:
  3858 ;;		Nothing
  3859 ;; This function is called by:
  3860 ;;		_TMR0_Initialize
  3861 ;;		_TMR0_ISR
  3862 ;; This function uses a non-reentrant model
  3863 ;;
  3864                           
  3865                           	psect	text40
  3866  00098A                     __ptext40:
  3867                           	callstack 0
  3868  00098A                     _TMR0_DefaultInterruptHandler:
  3869                           	callstack 25
  3870  00098A                     
  3871                           ;mcc_generated_files/tmr0.c: 142:     timer0overflowFlag++;
  3872  00098A  2A13               	incf	_timer0overflowFlag^0,f,c	;volatile
  3873  00098C  0012               	return		;funcret
  3874  00098E                     __end_of_TMR0_DefaultInterruptHandler:
  3875                           	callstack 0
  3876                           
  3877 ;; *************** function _TMR0_UserInterruptHandler *****************
  3878 ;; Defined at:
  3879 ;;		line 432 in file "application.c"
  3880 ;; Parameters:    Size  Location     Type
  3881 ;;		None
  3882 ;; Auto vars:     Size  Location     Type
  3883 ;;		None
  3884 ;; Return value:  Size  Location     Type
  3885 ;;                  1    wreg      void 
  3886 ;; Registers used:
  3887 ;;		status,2, status,0
  3888 ;; Tracked objects:
  3889 ;;		On entry : 0/0
  3890 ;;		On exit  : 0/0
  3891 ;;		Unchanged: 0/0
  3892 ;; Data sizes:     COMRAM   BANK0   BANK1   BANK2   BANK3   BANK4   BANK5   BANK6   BANK7   BANK8   BANK9  BANK10  BANK1
      +1  BANK12  BANK13  BANK14
  3893 ;;      Params:         0       0       0       0       0       0       0       0       0       0       0       0       
      +0       0       0       0
  3894 ;;      Locals:         0       0       0       0       0       0       0       0       0       0       0       0       
      +0       0       0       0
  3895 ;;      Temps:          0       0       0       0       0       0       0       0       0       0       0       0       
      +0       0       0       0
  3896 ;;      Totals:         0       0       0       0       0       0       0       0       0       0       0       0       
      +0       0       0       0
  3897 ;;Total ram usage:        0 bytes
  3898 ;; Hardware stack levels used:    1
  3899 ;; This function calls:
  3900 ;;		Nothing
  3901 ;; This function is called by:
  3902 ;;		_main
  3903 ;;		_TMR0_ISR
  3904 ;; This function uses a non-reentrant model
  3905 ;;
  3906                           
  3907                           	psect	text41
  3908  00098E                     __ptext41:
  3909                           	callstack 0
  3910  00098E                     _TMR0_UserInterruptHandler:
  3911                           	callstack 25
  3912  00098E                     
  3913                           ;application.c: 434:       timer0overflowFlag++;
  3914  00098E  2A13               	incf	_timer0overflowFlag^0,f,c	;volatile
  3915  000990  0012               	return		;funcret
  3916  000992                     __end_of_TMR0_UserInterruptHandler:
  3917                           	callstack 0
  3918                           
  3919 ;; *************** function _CLC5_ISR *****************
  3920 ;; Defined at:
  3921 ;;		line 91 in file "mcc_generated_files/clc5.c"
  3922 ;; Parameters:    Size  Location     Type
  3923 ;;		None
  3924 ;; Auto vars:     Size  Location     Type
  3925 ;;		None
  3926 ;; Return value:  Size  Location     Type
  3927 ;;                  1    wreg      void 
  3928 ;; Registers used:
  3929 ;;		wreg, status,2
  3930 ;; Tracked objects:
  3931 ;;		On entry : 0/0
  3932 ;;		On exit  : 0/0
  3933 ;;		Unchanged: 0/0
  3934 ;; Data sizes:     COMRAM   BANK0   BANK1   BANK2   BANK3   BANK4   BANK5   BANK6   BANK7   BANK8   BANK9  BANK10  BANK1
      +1  BANK12  BANK13  BANK14
  3935 ;;      Params:         0       0       0       0       0       0       0       0       0       0       0       0       
      +0       0       0       0
  3936 ;;      Locals:         0       0       0       0       0       0       0       0       0       0       0       0       
      +0       0       0       0
  3937 ;;      Temps:          0       0       0       0       0       0       0       0       0       0       0       0       
      +0       0       0       0
  3938 ;;      Totals:         0       0       0       0       0       0       0       0       0       0       0       0       
      +0       0       0       0
  3939 ;;Total ram usage:        0 bytes
  3940 ;; Hardware stack levels used:    1
  3941 ;; This function calls:
  3942 ;;		Nothing
  3943 ;; This function is called by:
  3944 ;;		_INTERRUPT_InterruptManager
  3945 ;; This function uses a non-reentrant model
  3946 ;;
  3947                           
  3948                           	psect	text42
  3949  000940                     __ptext42:
  3950                           	callstack 0
  3951  000940                     _CLC5_ISR:
  3952                           	callstack 26
  3953  000940                     
  3954                           ;mcc_generated_files/clc5.c: 94:     PIR6bits.CLC5IF = 0;
  3955  000940  010E               	movlb	14	; () banked
  3956  000942  99CB               	bcf	203,4,b	;volatile
  3957  000944                     
  3958                           ; BSR set to: 14
  3959                           ;mcc_generated_files/clc5.c: 96:     clc5RisingEdgeFlag = 1;
  3960  000944  0E01               	movlw	1
  3961  000946  6E12               	movwf	_clc5RisingEdgeFlag^0,c	;volatile
  3962  000948                     
  3963                           ; BSR set to: 14
  3964  000948  0012               	return		;funcret
  3965  00094A                     __end_of_CLC5_ISR:
  3966                           	callstack 0
  3967                           
  3968 ;; *************** function _CLC1_ISR *****************
  3969 ;; Defined at:
  3970 ;;		line 92 in file "mcc_generated_files/clc1.c"
  3971 ;; Parameters:    Size  Location     Type
  3972 ;;		None
  3973 ;; Auto vars:     Size  Location     Type
  3974 ;;		None
  3975 ;; Return value:  Size  Location     Type
  3976 ;;                  1    wreg      void 
  3977 ;; Registers used:
  3978 ;;		wreg, status,2
  3979 ;; Tracked objects:
  3980 ;;		On entry : 0/0
  3981 ;;		On exit  : 0/0
  3982 ;;		Unchanged: 0/0
  3983 ;; Data sizes:     COMRAM   BANK0   BANK1   BANK2   BANK3   BANK4   BANK5   BANK6   BANK7   BANK8   BANK9  BANK10  BANK1
      +1  BANK12  BANK13  BANK14
  3984 ;;      Params:         0       0       0       0       0       0       0       0       0       0       0       0       
      +0       0       0       0
  3985 ;;      Locals:         0       0       0       0       0       0       0       0       0       0       0       0       
      +0       0       0       0
  3986 ;;      Temps:          0       0       0       0       0       0       0       0       0       0       0       0       
      +0       0       0       0
  3987 ;;      Totals:         0       0       0       0       0       0       0       0       0       0       0       0       
      +0       0       0       0
  3988 ;;Total ram usage:        0 bytes
  3989 ;; Hardware stack levels used:    1
  3990 ;; This function calls:
  3991 ;;		Nothing
  3992 ;; This function is called by:
  3993 ;;		_INTERRUPT_InterruptManager
  3994 ;; This function uses a non-reentrant model
  3995 ;;
  3996                           
  3997                           	psect	text43
  3998  00083E                     __ptext43:
  3999                           	callstack 0
  4000  00083E                     _CLC1_ISR:
  4001                           	callstack 26
  4002  00083E                     
  4003                           ;mcc_generated_files/clc1.c: 95:     PIR5bits.CLC1IF = 0;
  4004  00083E  010E               	movlb	14	; () banked
  4005  000840  99CA               	bcf	202,4,b	;volatile
  4006  000842                     
  4007                           ; BSR set to: 14
  4008                           ;mcc_generated_files/clc1.c: 97:     if(clc1FirstRisingEdge)
  4009  000842  5015               	movf	_clc1FirstRisingEdge^0,w,c	;volatile
  4010  000844  B4D8               	btfsc	status,2,c
  4011  000846  EF27  F004         	goto	i2u16_41
  4012  00084A  EF29  F004         	goto	i2u16_40
  4013  00084E                     i2u16_41:
  4014  00084E  EF2D  F004         	goto	i2l1798
  4015  000852                     i2u16_40:
  4016  000852                     
  4017                           ; BSR set to: 14
  4018                           ;mcc_generated_files/clc1.c: 98:     {;mcc_generated_files/clc1.c: 99:         clc1risin
      +                          gEdgeFlag=1;
  4019  000852  0E01               	movlw	1
  4020  000854  6E14               	movwf	_clc1risingEdgeFlag^0,c	;volatile
  4021                           
  4022                           ;mcc_generated_files/clc1.c: 100:     }
  4023  000856  EF2F  F004         	goto	i2l164
  4024  00085A                     i2l1798:
  4025                           
  4026                           ; BSR set to: 14
  4027                           ;mcc_generated_files/clc1.c: 102:     {;mcc_generated_files/clc1.c: 103:         clc1Fir
      +                          stRisingEdge = 1;
  4028  00085A  0E01               	movlw	1
  4029  00085C  6E15               	movwf	_clc1FirstRisingEdge^0,c	;volatile
  4030  00085E                     i2l164:
  4031                           
  4032                           ; BSR set to: 14
  4033  00085E  0012               	return		;funcret
  4034  000860                     __end_of_CLC1_ISR:
  4035                           	callstack 0
  4036  0000                     
  4037                           	psect	text44
  4038  000000                     __ptext44:
  4039                           	callstack 0
  4040  000000                     
  4041                           	psect	rparam
  4042  0000                     
  4043                           	psect	temp
  4044  00002B                     btemp:
  4045                           	callstack 0
  4046  00002B                     	ds	1
  4047  0000                     int$flags	set	btemp
  4048  0000                     wtemp8	set	btemp+1
  4049  0000                     ttemp5	set	btemp+1
  4050  0000                     ttemp6	set	btemp+4
  4051  0000                     ttemp7	set	btemp+8
  4052                           
  4053                           	psect	idloc
  4054                           
  4055                           ;Config register IDLOC0 @ 0x200000
  4056                           ;	unspecified, using default values
  4057  200000                     	org	2097152
  4058  200000  FFFF               	dw	65535
  4059                           
  4060                           ;Config register IDLOC1 @ 0x200002
  4061                           ;	unspecified, using default values
  4062  200002                     	org	2097154
  4063  200002  FFFF               	dw	65535
  4064                           
  4065                           ;Config register IDLOC2 @ 0x200004
  4066                           ;	unspecified, using default values
  4067  200004                     	org	2097156
  4068  200004  FFFF               	dw	65535
  4069                           
  4070                           ;Config register IDLOC3 @ 0x200006
  4071                           ;	unspecified, using default values
  4072  200006                     	org	2097158
  4073  200006  FFFF               	dw	65535
  4074                           
  4075                           ;Config register IDLOC4 @ 0x200008
  4076                           ;	unspecified, using default values
  4077  200008                     	org	2097160
  4078  200008  FFFF               	dw	65535
  4079                           
  4080                           ;Config register IDLOC5 @ 0x20000A
  4081                           ;	unspecified, using default values
  4082  20000A                     	org	2097162
  4083  20000A  FFFF               	dw	65535
  4084                           
  4085                           ;Config register IDLOC6 @ 0x20000C
  4086                           ;	unspecified, using default values
  4087  20000C                     	org	2097164
  4088  20000C  FFFF               	dw	65535
  4089                           
  4090                           ;Config register IDLOC7 @ 0x20000E
  4091                           ;	unspecified, using default values
  4092  20000E                     	org	2097166
  4093  20000E  FFFF               	dw	65535
  4094                           
  4095                           ;Config register IDLOC8 @ 0x200010
  4096                           ;	unspecified, using default values
  4097  200010                     	org	2097168
  4098  200010  FFFF               	dw	65535
  4099                           
  4100                           ;Config register IDLOC9 @ 0x200012
  4101                           ;	unspecified, using default values
  4102  200012                     	org	2097170
  4103  200012  FFFF               	dw	65535
  4104                           
  4105                           ;Config register IDLOC10 @ 0x200014
  4106                           ;	unspecified, using default values
  4107  200014                     	org	2097172
  4108  200014  FFFF               	dw	65535
  4109                           
  4110                           ;Config register IDLOC11 @ 0x200016
  4111                           ;	unspecified, using default values
  4112  200016                     	org	2097174
  4113  200016  FFFF               	dw	65535
  4114                           
  4115                           ;Config register IDLOC12 @ 0x200018
  4116                           ;	unspecified, using default values
  4117  200018                     	org	2097176
  4118  200018  FFFF               	dw	65535
  4119                           
  4120                           ;Config register IDLOC13 @ 0x20001A
  4121                           ;	unspecified, using default values
  4122  20001A                     	org	2097178
  4123  20001A  FFFF               	dw	65535
  4124                           
  4125                           ;Config register IDLOC14 @ 0x20001C
  4126                           ;	unspecified, using default values
  4127  20001C                     	org	2097180
  4128  20001C  FFFF               	dw	65535
  4129                           
  4130                           ;Config register IDLOC15 @ 0x20001E
  4131                           ;	unspecified, using default values
  4132  20001E                     	org	2097182
  4133  20001E  FFFF               	dw	65535
  4134                           
  4135                           ;Config register IDLOC16 @ 0x200020
  4136                           ;	unspecified, using default values
  4137  200020                     	org	2097184
  4138  200020  FFFF               	dw	65535
  4139                           
  4140                           ;Config register IDLOC17 @ 0x200022
  4141                           ;	unspecified, using default values
  4142  200022                     	org	2097186
  4143  200022  FFFF               	dw	65535
  4144                           
  4145                           ;Config register IDLOC18 @ 0x200024
  4146                           ;	unspecified, using default values
  4147  200024                     	org	2097188
  4148  200024  FFFF               	dw	65535
  4149                           
  4150                           ;Config register IDLOC19 @ 0x200026
  4151                           ;	unspecified, using default values
  4152  200026                     	org	2097190
  4153  200026  FFFF               	dw	65535
  4154                           
  4155                           ;Config register IDLOC20 @ 0x200028
  4156                           ;	unspecified, using default values
  4157  200028                     	org	2097192
  4158  200028  FFFF               	dw	65535
  4159                           
  4160                           ;Config register IDLOC21 @ 0x20002A
  4161                           ;	unspecified, using default values
  4162  20002A                     	org	2097194
  4163  20002A  FFFF               	dw	65535
  4164                           
  4165                           ;Config register IDLOC22 @ 0x20002C
  4166                           ;	unspecified, using default values
  4167  20002C                     	org	2097196
  4168  20002C  FFFF               	dw	65535
  4169                           
  4170                           ;Config register IDLOC23 @ 0x20002E
  4171                           ;	unspecified, using default values
  4172  20002E                     	org	2097198
  4173  20002E  FFFF               	dw	65535
  4174                           
  4175                           ;Config register IDLOC24 @ 0x200030
  4176                           ;	unspecified, using default values
  4177  200030                     	org	2097200
  4178  200030  FFFF               	dw	65535
  4179                           
  4180                           ;Config register IDLOC25 @ 0x200032
  4181                           ;	unspecified, using default values
  4182  200032                     	org	2097202
  4183  200032  FFFF               	dw	65535
  4184                           
  4185                           ;Config register IDLOC26 @ 0x200034
  4186                           ;	unspecified, using default values
  4187  200034                     	org	2097204
  4188  200034  FFFF               	dw	65535
  4189                           
  4190                           ;Config register IDLOC27 @ 0x200036
  4191                           ;	unspecified, using default values
  4192  200036                     	org	2097206
  4193  200036  FFFF               	dw	65535
  4194                           
  4195                           ;Config register IDLOC28 @ 0x200038
  4196                           ;	unspecified, using default values
  4197  200038                     	org	2097208
  4198  200038  FFFF               	dw	65535
  4199                           
  4200                           ;Config register IDLOC29 @ 0x20003A
  4201                           ;	unspecified, using default values
  4202  20003A                     	org	2097210
  4203  20003A  FFFF               	dw	65535
  4204                           
  4205                           ;Config register IDLOC30 @ 0x20003C
  4206                           ;	unspecified, using default values
  4207  20003C                     	org	2097212
  4208  20003C  FFFF               	dw	65535
  4209                           
  4210                           ;Config register IDLOC31 @ 0x20003E
  4211                           ;	unspecified, using default values
  4212  20003E                     	org	2097214
  4213  20003E  FFFF               	dw	65535
  4214                           
  4215                           ;Config register IDLOC32 @ 0x200040
  4216                           ;	unspecified, using default values
  4217  200040                     	org	2097216
  4218  200040  FFFF               	dw	65535
  4219                           
  4220                           ;Config register IDLOC33 @ 0x200042
  4221                           ;	unspecified, using default values
  4222  200042                     	org	2097218
  4223  200042  FFFF               	dw	65535
  4224                           
  4225                           ;Config register IDLOC34 @ 0x200044
  4226                           ;	unspecified, using default values
  4227  200044                     	org	2097220
  4228  200044  FFFF               	dw	65535
  4229                           
  4230                           ;Config register IDLOC35 @ 0x200046
  4231                           ;	unspecified, using default values
  4232  200046                     	org	2097222
  4233  200046  FFFF               	dw	65535
  4234                           
  4235                           ;Config register IDLOC36 @ 0x200048
  4236                           ;	unspecified, using default values
  4237  200048                     	org	2097224
  4238  200048  FFFF               	dw	65535
  4239                           
  4240                           ;Config register IDLOC37 @ 0x20004A
  4241                           ;	unspecified, using default values
  4242  20004A                     	org	2097226
  4243  20004A  FFFF               	dw	65535
  4244                           
  4245                           ;Config register IDLOC38 @ 0x20004C
  4246                           ;	unspecified, using default values
  4247  20004C                     	org	2097228
  4248  20004C  FFFF               	dw	65535
  4249                           
  4250                           ;Config register IDLOC39 @ 0x20004E
  4251                           ;	unspecified, using default values
  4252  20004E                     	org	2097230
  4253  20004E  FFFF               	dw	65535
  4254                           
  4255                           ;Config register IDLOC40 @ 0x200050
  4256                           ;	unspecified, using default values
  4257  200050                     	org	2097232
  4258  200050  FFFF               	dw	65535
  4259                           
  4260                           ;Config register IDLOC41 @ 0x200052
  4261                           ;	unspecified, using default values
  4262  200052                     	org	2097234
  4263  200052  FFFF               	dw	65535
  4264                           
  4265                           ;Config register IDLOC42 @ 0x200054
  4266                           ;	unspecified, using default values
  4267  200054                     	org	2097236
  4268  200054  FFFF               	dw	65535
  4269                           
  4270                           ;Config register IDLOC43 @ 0x200056
  4271                           ;	unspecified, using default values
  4272  200056                     	org	2097238
  4273  200056  FFFF               	dw	65535
  4274                           
  4275                           ;Config register IDLOC44 @ 0x200058
  4276                           ;	unspecified, using default values
  4277  200058                     	org	2097240
  4278  200058  FFFF               	dw	65535
  4279                           
  4280                           ;Config register IDLOC45 @ 0x20005A
  4281                           ;	unspecified, using default values
  4282  20005A                     	org	2097242
  4283  20005A  FFFF               	dw	65535
  4284                           
  4285                           ;Config register IDLOC46 @ 0x20005C
  4286                           ;	unspecified, using default values
  4287  20005C                     	org	2097244
  4288  20005C  FFFF               	dw	65535
  4289                           
  4290                           ;Config register IDLOC47 @ 0x20005E
  4291                           ;	unspecified, using default values
  4292  20005E                     	org	2097246
  4293  20005E  FFFF               	dw	65535
  4294                           
  4295                           ;Config register IDLOC48 @ 0x200060
  4296                           ;	unspecified, using default values
  4297  200060                     	org	2097248
  4298  200060  FFFF               	dw	65535
  4299                           
  4300                           ;Config register IDLOC49 @ 0x200062
  4301                           ;	unspecified, using default values
  4302  200062                     	org	2097250
  4303  200062  FFFF               	dw	65535
  4304                           
  4305                           ;Config register IDLOC50 @ 0x200064
  4306                           ;	unspecified, using default values
  4307  200064                     	org	2097252
  4308  200064  FFFF               	dw	65535
  4309                           
  4310                           ;Config register IDLOC51 @ 0x200066
  4311                           ;	unspecified, using default values
  4312  200066                     	org	2097254
  4313  200066  FFFF               	dw	65535
  4314                           
  4315                           ;Config register IDLOC52 @ 0x200068
  4316                           ;	unspecified, using default values
  4317  200068                     	org	2097256
  4318  200068  FFFF               	dw	65535
  4319                           
  4320                           ;Config register IDLOC53 @ 0x20006A
  4321                           ;	unspecified, using default values
  4322  20006A                     	org	2097258
  4323  20006A  FFFF               	dw	65535
  4324                           
  4325                           ;Config register IDLOC54 @ 0x20006C
  4326                           ;	unspecified, using default values
  4327  20006C                     	org	2097260
  4328  20006C  FFFF               	dw	65535
  4329                           
  4330                           ;Config register IDLOC55 @ 0x20006E
  4331                           ;	unspecified, using default values
  4332  20006E                     	org	2097262
  4333  20006E  FFFF               	dw	65535
  4334                           
  4335                           ;Config register IDLOC56 @ 0x200070
  4336                           ;	unspecified, using default values
  4337  200070                     	org	2097264
  4338  200070  FFFF               	dw	65535
  4339                           
  4340                           ;Config register IDLOC57 @ 0x200072
  4341                           ;	unspecified, using default values
  4342  200072                     	org	2097266
  4343  200072  FFFF               	dw	65535
  4344                           
  4345                           ;Config register IDLOC58 @ 0x200074
  4346                           ;	unspecified, using default values
  4347  200074                     	org	2097268
  4348  200074  FFFF               	dw	65535
  4349                           
  4350                           ;Config register IDLOC59 @ 0x200076
  4351                           ;	unspecified, using default values
  4352  200076                     	org	2097270
  4353  200076  FFFF               	dw	65535
  4354                           
  4355                           ;Config register IDLOC60 @ 0x200078
  4356                           ;	unspecified, using default values
  4357  200078                     	org	2097272
  4358  200078  FFFF               	dw	65535
  4359                           
  4360                           ;Config register IDLOC61 @ 0x20007A
  4361                           ;	unspecified, using default values
  4362  20007A                     	org	2097274
  4363  20007A  FFFF               	dw	65535
  4364                           
  4365                           ;Config register IDLOC62 @ 0x20007C
  4366                           ;	unspecified, using default values
  4367  20007C                     	org	2097276
  4368  20007C  FFFF               	dw	65535
  4369                           
  4370                           ;Config register IDLOC63 @ 0x20007E
  4371                           ;	unspecified, using default values
  4372  20007E                     	org	2097278
  4373  20007E  FFFF               	dw	65535
  4374                           
  4375                           ;Config register IDLOC64 @ 0x200080
  4376                           ;	unspecified, using default values
  4377  200080                     	org	2097280
  4378  200080  FFFF               	dw	65535
  4379                           
  4380                           ;Config register IDLOC65 @ 0x200082
  4381                           ;	unspecified, using default values
  4382  200082                     	org	2097282
  4383  200082  FFFF               	dw	65535
  4384                           
  4385                           ;Config register IDLOC66 @ 0x200084
  4386                           ;	unspecified, using default values
  4387  200084                     	org	2097284
  4388  200084  FFFF               	dw	65535
  4389                           
  4390                           ;Config register IDLOC67 @ 0x200086
  4391                           ;	unspecified, using default values
  4392  200086                     	org	2097286
  4393  200086  FFFF               	dw	65535
  4394                           
  4395                           ;Config register IDLOC68 @ 0x200088
  4396                           ;	unspecified, using default values
  4397  200088                     	org	2097288
  4398  200088  FFFF               	dw	65535
  4399                           
  4400                           ;Config register IDLOC69 @ 0x20008A
  4401                           ;	unspecified, using default values
  4402  20008A                     	org	2097290
  4403  20008A  FFFF               	dw	65535
  4404                           
  4405                           ;Config register IDLOC70 @ 0x20008C
  4406                           ;	unspecified, using default values
  4407  20008C                     	org	2097292
  4408  20008C  FFFF               	dw	65535
  4409                           
  4410                           ;Config register IDLOC71 @ 0x20008E
  4411                           ;	unspecified, using default values
  4412  20008E                     	org	2097294
  4413  20008E  FFFF               	dw	65535
  4414                           
  4415                           ;Config register IDLOC72 @ 0x200090
  4416                           ;	unspecified, using default values
  4417  200090                     	org	2097296
  4418  200090  FFFF               	dw	65535
  4419                           
  4420                           ;Config register IDLOC73 @ 0x200092
  4421                           ;	unspecified, using default values
  4422  200092                     	org	2097298
  4423  200092  FFFF               	dw	65535
  4424                           
  4425                           ;Config register IDLOC74 @ 0x200094
  4426                           ;	unspecified, using default values
  4427  200094                     	org	2097300
  4428  200094  FFFF               	dw	65535
  4429                           
  4430                           ;Config register IDLOC75 @ 0x200096
  4431                           ;	unspecified, using default values
  4432  200096                     	org	2097302
  4433  200096  FFFF               	dw	65535
  4434                           
  4435                           ;Config register IDLOC76 @ 0x200098
  4436                           ;	unspecified, using default values
  4437  200098                     	org	2097304
  4438  200098  FFFF               	dw	65535
  4439                           
  4440                           ;Config register IDLOC77 @ 0x20009A
  4441                           ;	unspecified, using default values
  4442  20009A                     	org	2097306
  4443  20009A  FFFF               	dw	65535
  4444                           
  4445                           ;Config register IDLOC78 @ 0x20009C
  4446                           ;	unspecified, using default values
  4447  20009C                     	org	2097308
  4448  20009C  FFFF               	dw	65535
  4449                           
  4450                           ;Config register IDLOC79 @ 0x20009E
  4451                           ;	unspecified, using default values
  4452  20009E                     	org	2097310
  4453  20009E  FFFF               	dw	65535
  4454                           
  4455                           ;Config register IDLOC80 @ 0x2000A0
  4456                           ;	unspecified, using default values
  4457  2000A0                     	org	2097312
  4458  2000A0  FFFF               	dw	65535
  4459                           
  4460                           ;Config register IDLOC81 @ 0x2000A2
  4461                           ;	unspecified, using default values
  4462  2000A2                     	org	2097314
  4463  2000A2  FFFF               	dw	65535
  4464                           
  4465                           ;Config register IDLOC82 @ 0x2000A4
  4466                           ;	unspecified, using default values
  4467  2000A4                     	org	2097316
  4468  2000A4  FFFF               	dw	65535
  4469                           
  4470                           ;Config register IDLOC83 @ 0x2000A6
  4471                           ;	unspecified, using default values
  4472  2000A6                     	org	2097318
  4473  2000A6  FFFF               	dw	65535
  4474                           
  4475                           ;Config register IDLOC84 @ 0x2000A8
  4476                           ;	unspecified, using default values
  4477  2000A8                     	org	2097320
  4478  2000A8  FFFF               	dw	65535
  4479                           
  4480                           ;Config register IDLOC85 @ 0x2000AA
  4481                           ;	unspecified, using default values
  4482  2000AA                     	org	2097322
  4483  2000AA  FFFF               	dw	65535
  4484                           
  4485                           ;Config register IDLOC86 @ 0x2000AC
  4486                           ;	unspecified, using default values
  4487  2000AC                     	org	2097324
  4488  2000AC  FFFF               	dw	65535
  4489                           
  4490                           ;Config register IDLOC87 @ 0x2000AE
  4491                           ;	unspecified, using default values
  4492  2000AE                     	org	2097326
  4493  2000AE  FFFF               	dw	65535
  4494                           
  4495                           ;Config register IDLOC88 @ 0x2000B0
  4496                           ;	unspecified, using default values
  4497  2000B0                     	org	2097328
  4498  2000B0  FFFF               	dw	65535
  4499                           
  4500                           ;Config register IDLOC89 @ 0x2000B2
  4501                           ;	unspecified, using default values
  4502  2000B2                     	org	2097330
  4503  2000B2  FFFF               	dw	65535
  4504                           
  4505                           ;Config register IDLOC90 @ 0x2000B4
  4506                           ;	unspecified, using default values
  4507  2000B4                     	org	2097332
  4508  2000B4  FFFF               	dw	65535
  4509                           
  4510                           ;Config register IDLOC91 @ 0x2000B6
  4511                           ;	unspecified, using default values
  4512  2000B6                     	org	2097334
  4513  2000B6  FFFF               	dw	65535
  4514                           
  4515                           ;Config register IDLOC92 @ 0x2000B8
  4516                           ;	unspecified, using default values
  4517  2000B8                     	org	2097336
  4518  2000B8  FFFF               	dw	65535
  4519                           
  4520                           ;Config register IDLOC93 @ 0x2000BA
  4521                           ;	unspecified, using default values
  4522  2000BA                     	org	2097338
  4523  2000BA  FFFF               	dw	65535
  4524                           
  4525                           ;Config register IDLOC94 @ 0x2000BC
  4526                           ;	unspecified, using default values
  4527  2000BC                     	org	2097340
  4528  2000BC  FFFF               	dw	65535
  4529                           
  4530                           ;Config register IDLOC95 @ 0x2000BE
  4531                           ;	unspecified, using default values
  4532  2000BE                     	org	2097342
  4533  2000BE  FFFF               	dw	65535
  4534                           
  4535                           ;Config register IDLOC96 @ 0x2000C0
  4536                           ;	unspecified, using default values
  4537  2000C0                     	org	2097344
  4538  2000C0  FFFF               	dw	65535
  4539                           
  4540                           ;Config register IDLOC97 @ 0x2000C2
  4541                           ;	unspecified, using default values
  4542  2000C2                     	org	2097346
  4543  2000C2  FFFF               	dw	65535
  4544                           
  4545                           ;Config register IDLOC98 @ 0x2000C4
  4546                           ;	unspecified, using default values
  4547  2000C4                     	org	2097348
  4548  2000C4  FFFF               	dw	65535
  4549                           
  4550                           ;Config register IDLOC99 @ 0x2000C6
  4551                           ;	unspecified, using default values
  4552  2000C6                     	org	2097350
  4553  2000C6  FFFF               	dw	65535
  4554                           
  4555                           ;Config register IDLOC100 @ 0x2000C8
  4556                           ;	unspecified, using default values
  4557  2000C8                     	org	2097352
  4558  2000C8  FFFF               	dw	65535
  4559                           
  4560                           ;Config register IDLOC101 @ 0x2000CA
  4561                           ;	unspecified, using default values
  4562  2000CA                     	org	2097354
  4563  2000CA  FFFF               	dw	65535
  4564                           
  4565                           ;Config register IDLOC102 @ 0x2000CC
  4566                           ;	unspecified, using default values
  4567  2000CC                     	org	2097356
  4568  2000CC  FFFF               	dw	65535
  4569                           
  4570                           ;Config register IDLOC103 @ 0x2000CE
  4571                           ;	unspecified, using default values
  4572  2000CE                     	org	2097358
  4573  2000CE  FFFF               	dw	65535
  4574                           
  4575                           ;Config register IDLOC104 @ 0x2000D0
  4576                           ;	unspecified, using default values
  4577  2000D0                     	org	2097360
  4578  2000D0  FFFF               	dw	65535
  4579                           
  4580                           ;Config register IDLOC105 @ 0x2000D2
  4581                           ;	unspecified, using default values
  4582  2000D2                     	org	2097362
  4583  2000D2  FFFF               	dw	65535
  4584                           
  4585                           ;Config register IDLOC106 @ 0x2000D4
  4586                           ;	unspecified, using default values
  4587  2000D4                     	org	2097364
  4588  2000D4  FFFF               	dw	65535
  4589                           
  4590                           ;Config register IDLOC107 @ 0x2000D6
  4591                           ;	unspecified, using default values
  4592  2000D6                     	org	2097366
  4593  2000D6  FFFF               	dw	65535
  4594                           
  4595                           ;Config register IDLOC108 @ 0x2000D8
  4596                           ;	unspecified, using default values
  4597  2000D8                     	org	2097368
  4598  2000D8  FFFF               	dw	65535
  4599                           
  4600                           ;Config register IDLOC109 @ 0x2000DA
  4601                           ;	unspecified, using default values
  4602  2000DA                     	org	2097370
  4603  2000DA  FFFF               	dw	65535
  4604                           
  4605                           ;Config register IDLOC110 @ 0x2000DC
  4606                           ;	unspecified, using default values
  4607  2000DC                     	org	2097372
  4608  2000DC  FFFF               	dw	65535
  4609                           
  4610                           ;Config register IDLOC111 @ 0x2000DE
  4611                           ;	unspecified, using default values
  4612  2000DE                     	org	2097374
  4613  2000DE  FFFF               	dw	65535
  4614                           
  4615                           ;Config register IDLOC112 @ 0x2000E0
  4616                           ;	unspecified, using default values
  4617  2000E0                     	org	2097376
  4618  2000E0  FFFF               	dw	65535
  4619                           
  4620                           ;Config register IDLOC113 @ 0x2000E2
  4621                           ;	unspecified, using default values
  4622  2000E2                     	org	2097378
  4623  2000E2  FFFF               	dw	65535
  4624                           
  4625                           ;Config register IDLOC114 @ 0x2000E4
  4626                           ;	unspecified, using default values
  4627  2000E4                     	org	2097380
  4628  2000E4  FFFF               	dw	65535
  4629                           
  4630                           ;Config register IDLOC115 @ 0x2000E6
  4631                           ;	unspecified, using default values
  4632  2000E6                     	org	2097382
  4633  2000E6  FFFF               	dw	65535
  4634                           
  4635                           ;Config register IDLOC116 @ 0x2000E8
  4636                           ;	unspecified, using default values
  4637  2000E8                     	org	2097384
  4638  2000E8  FFFF               	dw	65535
  4639                           
  4640                           ;Config register IDLOC117 @ 0x2000EA
  4641                           ;	unspecified, using default values
  4642  2000EA                     	org	2097386
  4643  2000EA  FFFF               	dw	65535
  4644                           
  4645                           ;Config register IDLOC118 @ 0x2000EC
  4646                           ;	unspecified, using default values
  4647  2000EC                     	org	2097388
  4648  2000EC  FFFF               	dw	65535
  4649                           
  4650                           ;Config register IDLOC119 @ 0x2000EE
  4651                           ;	unspecified, using default values
  4652  2000EE                     	org	2097390
  4653  2000EE  FFFF               	dw	65535
  4654                           
  4655                           ;Config register IDLOC120 @ 0x2000F0
  4656                           ;	unspecified, using default values
  4657  2000F0                     	org	2097392
  4658  2000F0  FFFF               	dw	65535
  4659                           
  4660                           ;Config register IDLOC121 @ 0x2000F2
  4661                           ;	unspecified, using default values
  4662  2000F2                     	org	2097394
  4663  2000F2  FFFF               	dw	65535
  4664                           
  4665                           ;Config register IDLOC122 @ 0x2000F4
  4666                           ;	unspecified, using default values
  4667  2000F4                     	org	2097396
  4668  2000F4  FFFF               	dw	65535
  4669                           
  4670                           ;Config register IDLOC123 @ 0x2000F6
  4671                           ;	unspecified, using default values
  4672  2000F6                     	org	2097398
  4673  2000F6  FFFF               	dw	65535
  4674                           
  4675                           ;Config register IDLOC124 @ 0x2000F8
  4676                           ;	unspecified, using default values
  4677  2000F8                     	org	2097400
  4678  2000F8  FFFF               	dw	65535
  4679                           
  4680                           ;Config register IDLOC125 @ 0x2000FA
  4681                           ;	unspecified, using default values
  4682  2000FA                     	org	2097402
  4683  2000FA  FFFF               	dw	65535
  4684                           
  4685                           ;Config register IDLOC126 @ 0x2000FC
  4686                           ;	unspecified, using default values
  4687  2000FC                     	org	2097404
  4688  2000FC  FFFF               	dw	65535
  4689                           
  4690                           ;Config register IDLOC127 @ 0x2000FE
  4691                           ;	unspecified, using default values
  4692  2000FE                     	org	2097406
  4693  2000FE  FFFF               	dw	65535
  4694                           
  4695                           	psect	config
  4696                           
  4697                           ;Config register CONFIG1L @ 0x300000
  4698                           ;	External Oscillator mode Selection bits
  4699                           ;	FEXTOSC = OFF, Oscillator not enabled
  4700                           ;	Power-up default value for COSC bits
  4701                           ;	RSTOSC = HFINTOSC_1MHZ, HFINTOSC with HFFRQ = 4 MHz and CDIV = 4:1
  4702  300000                     	org	3145728
  4703  300000  EC                 	db	236
  4704                           
  4705                           ;Config register CONFIG1H @ 0x300001
  4706                           ;	Clock Out Enable bit
  4707                           ;	CLKOUTEN = OFF, CLKOUT function is disabled
  4708                           ;	Clock Switch Enable bit
  4709                           ;	CSWEN = ON, Writing to NOSC and NDIV is allowed
  4710                           ;	Fail-Safe Clock Monitor Enable bit
  4711                           ;	FCMEN = ON, Fail-Safe Clock Monitor enabled
  4712  300001                     	org	3145729
  4713  300001  FF                 	db	255
  4714                           
  4715                           ;Config register CONFIG2L @ 0x300002
  4716                           ;	Master Clear Enable bit
  4717                           ;	MCLRE = EXTMCLR, MCLR pin (RE3) is MCLR
  4718                           ;	Power-up Timer Enable bit
  4719                           ;	PWRTE = OFF, Power up timer disabled
  4720                           ;	Low-power BOR enable bit
  4721                           ;	LPBOREN = OFF, Low power BOR is disabled
  4722                           ;	Brown-out Reset Enable bits
  4723                           ;	BOREN = SBORDIS, Brown-out Reset enabled , SBOREN bit is ignored
  4724  300002                     	org	3145730
  4725  300002  FF                 	db	255
  4726                           
  4727                           ;Config register CONFIG2H @ 0x300003
  4728                           ;	Brown Out Reset Voltage selection bits
  4729                           ;	BORV = VBOR_190, Brown-out Reset Voltage (VBOR) set to 1.90V
  4730                           ;	ZCD Disable bit
  4731                           ;	ZCD = OFF, ZCD disabled. ZCD can be enabled by setting the ZCDSEN bit of ZCDCON
  4732                           ;	PPSLOCK bit One-Way Set Enable bit
  4733                           ;	PPS1WAY = ON, PPSLOCK bit can be cleared and set only once; PPS registers remain locke
      +                          d after one clear/set cycle
  4734                           ;	Stack Full/Underflow Reset Enable bit
  4735                           ;	STVREN = ON, Stack full/underflow will cause Reset
  4736                           ;	Extended Instruction Set Enable bit
  4737                           ;	XINST = OFF, Extended Instruction Set and Indexed Addressing Mode disabled
  4738  300003                     	org	3145731
  4739  300003  FF                 	db	255
  4740                           
  4741                           ;Config register CONFIG3L @ 0x300004
  4742                           ;	WDT Period Select bits
  4743                           ;	WDTCPS = WDTCPS_31, Divider ratio 1:65536; software control of WDTPS
  4744                           ;	WDT operating mode
  4745                           ;	WDTE = OFF, WDT Disabled
  4746  300004                     	org	3145732
  4747  300004  9F                 	db	159
  4748                           
  4749                           ;Config register CONFIG3H @ 0x300005
  4750                           ;	WDT Window Select bits
  4751                           ;	WDTCWS = WDTCWS_7, window always open (100%); software control; keyed access not requi
      +                          red
  4752                           ;	WDT input clock selector
  4753                           ;	WDTCCS = SC, Software Control
  4754  300005                     	org	3145733
  4755  300005  FF                 	db	255
  4756                           
  4757                           ;Config register CONFIG4L @ 0x300006
  4758                           ;	Write Protection Block 0
  4759                           ;	WRT0 = OFF, Block 0 (000800-003FFFh) not write-protected
  4760                           ;	Write Protection Block 1
  4761                           ;	WRT1 = OFF, Block 1 (004000-007FFFh) not write-protected
  4762                           ;	Write Protection Block 2
  4763                           ;	WRT2 = OFF, Block 2 (008000-00BFFFh) not write-protected
  4764                           ;	Write Protection Block 3
  4765                           ;	WRT3 = OFF, Block 3 (00C000-00FFFFh) not write-protected
  4766                           ;	Write Protection Block 4
  4767                           ;	WRT4 = 0x1, unprogrammed default
  4768                           ;	Write Protection Block 5
  4769                           ;	WRT5 = 0x1, unprogrammed default
  4770                           ;	Write Protection Block 6
  4771                           ;	WRT6 = 0x1, unprogrammed default
  4772                           ;	Write Protection Block 7
  4773                           ;	WRT7 = 0x1, unprogrammed default
  4774  300006                     	org	3145734
  4775  300006  FF                 	db	255
  4776                           
  4777                           ;Config register CONFIG4H @ 0x300007
  4778                           ;	Configuration Register Write Protection bit
  4779                           ;	WRTC = OFF, Configuration registers (300000-30000Bh) not write-protected
  4780                           ;	Boot Block Write Protection bit
  4781                           ;	WRTB = OFF, Boot Block (000000-0007FFh) not write-protected
  4782                           ;	Data EEPROM Write Protection bit
  4783                           ;	WRTD = OFF, Data EEPROM not write-protected
  4784                           ;	Scanner Enable bit
  4785                           ;	SCANE = ON, Scanner module is available for use, SCANMD bit can control the module
  4786                           ;	Low Voltage Programming Enable bit
  4787                           ;	LVP = ON, Low voltage programming enabled. MCLR/VPP pin function is MCLR. MCLRE config
      +                          uration bit is ignored
  4788  300007                     	org	3145735
  4789  300007  FF                 	db	255
  4790                           
  4791                           ;Config register CONFIG5L @ 0x300008
  4792                           ;	UserNVM Program Memory Code Protection bit
  4793                           ;	CP = OFF, UserNVM code protection disabled
  4794                           ;	DataNVM Memory Code Protection bit
  4795                           ;	CPD = OFF, DataNVM code protection disabled
  4796  300008                     	org	3145736
  4797  300008  FF                 	db	255
  4798                           
  4799                           ;Config register CONFIG5H @ 0x300009
  4800                           ;	unspecified, using default values
  4801  300009                     	org	3145737
  4802  300009  FF                 	db	255
  4803                           
  4804                           ;Config register CONFIG6L @ 0x30000A
  4805                           ;	Table Read Protection Block 0
  4806                           ;	EBTR0 = OFF, Block 0 (000800-003FFFh) not protected from table reads executed in other
      +                           blocks
  4807                           ;	Table Read Protection Block 1
  4808                           ;	EBTR1 = OFF, Block 1 (004000-007FFFh) not protected from table reads executed in other
      +                           blocks
  4809                           ;	Table Read Protection Block 2
  4810                           ;	EBTR2 = OFF, Block 2 (008000-00BFFFh) not protected from table reads executed in other
      +                           blocks
  4811                           ;	Table Read Protection Block 3
  4812                           ;	EBTR3 = OFF, Block 3 (00C000-00FFFFh) not protected from table reads executed in other
      +                           blocks
  4813                           ;	Table Read Protection Block 4
  4814                           ;	EBTR4 = 0x1, unprogrammed default
  4815                           ;	Table Read Protection Block 5
  4816                           ;	EBTR5 = 0x1, unprogrammed default
  4817                           ;	Table Read Protection Block 6
  4818                           ;	EBTR6 = 0x1, unprogrammed default
  4819                           ;	Table Read Protection Block 7
  4820                           ;	EBTR7 = 0x1, unprogrammed default
  4821  30000A                     	org	3145738
  4822  30000A  FF                 	db	255
  4823                           
  4824                           ;Config register CONFIG6H @ 0x30000B
  4825                           ;	Boot Block Table Read Protection bit
  4826                           ;	EBTRB = OFF, Boot Block (000000-0007FFh) not protected from table reads executed in ot
      +                          her blocks
  4827  30000B                     	org	3145739
  4828  30000B  FF                 	db	255
  4829                           tosu	equ	0xFFF
  4830                           tosh	equ	0xFFE
  4831                           tosl	equ	0xFFD
  4832                           stkptr	equ	0xFFC
  4833                           pclatu	equ	0xFFB
  4834                           pclath	equ	0xFFA
  4835                           pcl	equ	0xFF9
  4836                           tblptru	equ	0xFF8
  4837                           tblptrh	equ	0xFF7
  4838                           tblptrl	equ	0xFF6
  4839                           tablat	equ	0xFF5
  4840                           prodh	equ	0xFF4
  4841                           prodl	equ	0xFF3
  4842                           indf0	equ	0xFEF
  4843                           postinc0	equ	0xFEE
  4844                           postdec0	equ	0xFED
  4845                           preinc0	equ	0xFEC
  4846                           plusw0	equ	0xFEB
  4847                           fsr0h	equ	0xFEA
  4848                           fsr0l	equ	0xFE9
  4849                           wreg	equ	0xFE8
  4850                           indf1	equ	0xFE7
  4851                           postinc1	equ	0xFE6
  4852                           postdec1	equ	0xFE5
  4853                           preinc1	equ	0xFE4
  4854                           plusw1	equ	0xFE3
  4855                           fsr1h	equ	0xFE2
  4856                           fsr1l	equ	0xFE1
  4857                           bsr	equ	0xFE0
  4858                           indf2	equ	0xFDF
  4859                           postinc2	equ	0xFDE
  4860                           postdec2	equ	0xFDD
  4861                           preinc2	equ	0xFDC
  4862                           plusw2	equ	0xFDB
  4863                           fsr2h	equ	0xFDA
  4864                           fsr2l	equ	0xFD9
  4865                           status	equ	0xFD8

Data Sizes:
    Strings     0
    Constant    0
    Data        0
    BSS         21
    Persistent  6
    Stack       0

Auto Spaces:
    Space          Size  Autos    Used
    COMRAM           94     15      42
    BANK0           160      0       0
    BANK1           256      0       0
    BANK2           256      0       0
    BANK3           256      0       0
    BANK4           256      0       0
    BANK5           256      0       0
    BANK6           256      0       0
    BANK7           256      0       0
    BANK8           256      0       0
    BANK9           256      0       0
    BANK10          256      0       0
    BANK11          256      0       0
    BANK12          256      0       0
    BANK13          256      0       0
    BANK14           31      0       0

Pointer List with Targets:

    TMR4_SetInterruptHandler@InterruptHandler	PTR FTN()void  size(3) Largest target is 1
		 -> TMR4_UserInterruptHandler(), TMR4_DefaultInterruptHandler(), 

    TMR4_InterruptHandler	PTR FTN()void  size(3) Largest target is 1
		 -> TMR4_UserInterruptHandler(), TMR4_DefaultInterruptHandler(), Absolute function(), 

    TMR0_SetInterruptHandler@InterruptHandler	PTR FTN()void  size(3) Largest target is 1
		 -> TMR0_UserInterruptHandler(), TMR0_DefaultInterruptHandler(), 

    TMR0_InterruptHandler	PTR FTN()void  size(3) Largest target is 1
		 -> TMR0_UserInterruptHandler(), Absolute function(), TMR0_DefaultInterruptHandler(), 


Critical Paths under _main in COMRAM

    _main->_ApplicationTask
    _TMR4_Initialize->_TMR4_SetInterruptHandler
    _TMR0_Initialize->_TMR0_SetInterruptHandler
    _ApplicationTask->_Prepare_IR_NEC_Data
    _SendIR_Frame->_TMR0_WriteTimer

Critical Paths under _INTERRUPT_InterruptManager in COMRAM

    None.

Critical Paths under _main in BANK0

    None.

Critical Paths under _INTERRUPT_InterruptManager in BANK0

    None.

Critical Paths under _main in BANK1

    None.

Critical Paths under _INTERRUPT_InterruptManager in BANK1

    None.

Critical Paths under _main in BANK2

    None.

Critical Paths under _INTERRUPT_InterruptManager in BANK2

    None.

Critical Paths under _main in BANK3

    None.

Critical Paths under _INTERRUPT_InterruptManager in BANK3

    None.

Critical Paths under _main in BANK4

    None.

Critical Paths under _INTERRUPT_InterruptManager in BANK4

    None.

Critical Paths under _main in BANK5

    None.

Critical Paths under _INTERRUPT_InterruptManager in BANK5

    None.

Critical Paths under _main in BANK6

    None.

Critical Paths under _INTERRUPT_InterruptManager in BANK6

    None.

Critical Paths under _main in BANK7

    None.

Critical Paths under _INTERRUPT_InterruptManager in BANK7

    None.

Critical Paths under _main in BANK8

    None.

Critical Paths under _INTERRUPT_InterruptManager in BANK8

    None.

Critical Paths under _main in BANK9

    None.

Critical Paths under _INTERRUPT_InterruptManager in BANK9

    None.

Critical Paths under _main in BANK10

    None.

Critical Paths under _INTERRUPT_InterruptManager in BANK10

    None.

Critical Paths under _main in BANK11

    None.

Critical Paths under _INTERRUPT_InterruptManager in BANK11

    None.

Critical Paths under _main in BANK12

    None.

Critical Paths under _INTERRUPT_InterruptManager in BANK12

    None.

Critical Paths under _main in BANK13

    None.

Critical Paths under _INTERRUPT_InterruptManager in BANK13

    None.

Critical Paths under _main in BANK14

    None.

Critical Paths under _INTERRUPT_InterruptManager in BANK14

    None.

Call Graph Tables:

 ---------------------------------------------------------------------------------
 (Depth) Function   	        Calls       Base Space   Used Autos Params    Refs
 ---------------------------------------------------------------------------------
 (0) _main                                                 0     0      0    1306
                    _ApplicationTask
                  _SYSTEM_Initialize
           _TMR0_SetInterruptHandler
           _TMR4_SetInterruptHandler
 ---------------------------------------------------------------------------------
 (1) _SYSTEM_Initialize                                    0     0      0     348
                    _CLC1_Initialize
                    _CLC2_Initialize
                    _CLC3_Initialize
                    _CLC4_Initialize
                    _CLC5_Initialize
                     _DSM_Initialize
               _INTERRUPT_Initialize
              _OSCILLATOR_Initialize
             _PIN_MANAGER_Initialize
                     _PMD_Initialize
                    _PWM3_Initialize
                    _PWM4_Initialize
                    _TMR0_Initialize
                    _TMR2_Initialize
                    _TMR4_Initialize
 ---------------------------------------------------------------------------------
 (2) _TMR4_Initialize                                      0     0      0     174
           _TMR4_SetInterruptHandler
 ---------------------------------------------------------------------------------
 (1) _TMR4_SetInterruptHandler                             3     0      3     174
                                              2 COMRAM     3     0      3
 ---------------------------------------------------------------------------------
 (2) _TMR2_Initialize                                      0     0      0       0
 ---------------------------------------------------------------------------------
 (2) _TMR0_Initialize                                      0     0      0     174
           _TMR0_SetInterruptHandler
 ---------------------------------------------------------------------------------
 (1) _TMR0_SetInterruptHandler                             3     0      3     174
                                              2 COMRAM     3     0      3
 ---------------------------------------------------------------------------------
 (2) _PWM4_Initialize                                      0     0      0       0
 ---------------------------------------------------------------------------------
 (2) _PWM3_Initialize                                      0     0      0       0
 ---------------------------------------------------------------------------------
 (2) _PMD_Initialize                                       0     0      0       0
 ---------------------------------------------------------------------------------
 (2) _PIN_MANAGER_Initialize                               0     0      0       0
 ---------------------------------------------------------------------------------
 (2) _OSCILLATOR_Initialize                                0     0      0       0
 ---------------------------------------------------------------------------------
 (2) _INTERRUPT_Initialize                                 0     0      0       0
 ---------------------------------------------------------------------------------
 (2) _DSM_Initialize                                       0     0      0       0
 ---------------------------------------------------------------------------------
 (2) _CLC5_Initialize                                      0     0      0       0
 ---------------------------------------------------------------------------------
 (2) _CLC4_Initialize                                      0     0      0       0
 ---------------------------------------------------------------------------------
 (2) _CLC3_Initialize                                      0     0      0       0
 ---------------------------------------------------------------------------------
 (2) _CLC2_Initialize                                      0     0      0       0
 ---------------------------------------------------------------------------------
 (2) _CLC1_Initialize                                      0     0      0       0
 ---------------------------------------------------------------------------------
 (1) _ApplicationTask                                      3     3      0     610
                                             12 COMRAM     3     3      0
                        _ClearButton
                         _ClearEvent
                          _GetButton
                           _GetEvent
                      _PrepareNewCMD
                _Prepare_IR_NEC_Data
                            _Reverse
                       _SendIR_Frame
 ---------------------------------------------------------------------------------
 (2) _SendIR_Frame                                         8     3      5     235
                                              3 COMRAM     8     3      5
          _DSM_ManualModulationClear
            _DSM_ManualModulationSet
                _DSM_ModulationStart
                 _DSM_ModulationStop
                    _TMR0_StartTimer
                     _TMR0_StopTimer
                    _TMR0_WriteTimer
 ---------------------------------------------------------------------------------
 (3) _TMR0_WriteTimer                                      1     1      0      15
                                              2 COMRAM     1     1      0
 ---------------------------------------------------------------------------------
 (3) _TMR0_StopTimer                                       0     0      0       0
 ---------------------------------------------------------------------------------
 (3) _TMR0_StartTimer                                      0     0      0       0
 ---------------------------------------------------------------------------------
 (3) _DSM_ModulationStop                                   0     0      0       0
 ---------------------------------------------------------------------------------
 (3) _DSM_ModulationStart                                  0     0      0       0
 ---------------------------------------------------------------------------------
 (3) _DSM_ManualModulationSet                              0     0      0       0
 ---------------------------------------------------------------------------------
 (3) _DSM_ManualModulationClear                            0     0      0       0
 ---------------------------------------------------------------------------------
 (2) _Reverse                                              3     3      0     105
                                              2 COMRAM     3     3      0
 ---------------------------------------------------------------------------------
 (2) _Prepare_IR_NEC_Data                                 10     6      4     194
                                              2 COMRAM    10     6      4
 ---------------------------------------------------------------------------------
 (2) _PrepareNewCMD                                        2     2      0      30
                                              2 COMRAM     2     2      0
 ---------------------------------------------------------------------------------
 (2) _GetEvent                                             0     0      0       0
 ---------------------------------------------------------------------------------
 (2) _GetButton                                            0     0      0       0
 ---------------------------------------------------------------------------------
 (2) _ClearEvent                                           0     0      0       0
 ---------------------------------------------------------------------------------
 (2) _ClearButton                                          0     0      0       0
 ---------------------------------------------------------------------------------
 Estimated maximum stack depth 3
 ---------------------------------------------------------------------------------
 (Depth) Function   	        Calls       Base Space   Used Autos Params    Refs
 ---------------------------------------------------------------------------------
 (4) _INTERRUPT_InterruptManager                           2     2      0       0
                                              0 COMRAM     2     2      0
                           _CLC1_ISR
                           _CLC5_ISR
                           _TMR0_ISR
                           _TMR4_ISR
 ---------------------------------------------------------------------------------
 (5) _TMR4_ISR                                             0     0      0       0
                   Absolute function *
       _TMR4_DefaultInterruptHandler *
          _TMR4_UserInterruptHandler *
 ---------------------------------------------------------------------------------
 (6) _TMR4_UserInterruptHandler                            0     0      0       0
 ---------------------------------------------------------------------------------
 (6) _TMR4_DefaultInterruptHandler                         0     0      0       0
 ---------------------------------------------------------------------------------
 (5) _TMR0_ISR                                             0     0      0       0
                   Absolute function *
       _TMR0_DefaultInterruptHandler *
          _TMR0_UserInterruptHandler *
 ---------------------------------------------------------------------------------
 (6) _TMR0_UserInterruptHandler                            0     0      0       0
 ---------------------------------------------------------------------------------
 (6) _TMR0_DefaultInterruptHandler                         0     0      0       0
 ---------------------------------------------------------------------------------
 (6) Absolute function(Fake)                               0     0      0       0
 ---------------------------------------------------------------------------------
 (5) _CLC5_ISR                                             0     0      0       0
 ---------------------------------------------------------------------------------
 (5) _CLC1_ISR                                             0     0      0       0
 ---------------------------------------------------------------------------------
 Estimated maximum stack depth 6
 ---------------------------------------------------------------------------------

 Call Graph Graphs:

 _main (ROOT)
   _ApplicationTask
     _ClearButton
     _ClearEvent
     _GetButton
     _GetEvent
     _PrepareNewCMD
     _Prepare_IR_NEC_Data
     _Reverse
     _SendIR_Frame
       _DSM_ManualModulationClear
       _DSM_ManualModulationSet
       _DSM_ModulationStart
       _DSM_ModulationStop
       _TMR0_StartTimer
       _TMR0_StopTimer
       _TMR0_WriteTimer
   _SYSTEM_Initialize
     _CLC1_Initialize
     _CLC2_Initialize
     _CLC3_Initialize
     _CLC4_Initialize
     _CLC5_Initialize
     _DSM_Initialize
     _INTERRUPT_Initialize
     _OSCILLATOR_Initialize
     _PIN_MANAGER_Initialize
     _PMD_Initialize
     _PWM3_Initialize
     _PWM4_Initialize
     _TMR0_Initialize
       _TMR0_SetInterruptHandler
     _TMR2_Initialize
     _TMR4_Initialize
       _TMR4_SetInterruptHandler
   _TMR0_SetInterruptHandler
   _TMR4_SetInterruptHandler

 _INTERRUPT_InterruptManager (ROOT)
   _CLC1_ISR
   _CLC5_ISR
   _TMR0_ISR
     Absolute function(Fake) *
     _TMR0_DefaultInterruptHandler *
     _TMR0_UserInterruptHandler *
   _TMR4_ISR
     Absolute function(Fake) *
     _TMR4_DefaultInterruptHandler *
     _TMR4_UserInterruptHandler *

 Address spaces:
Name               Size   Autos  Total    Cost      Usage
BIGRAM             E1E      0       0      35        0.0%
EEDATA             400      0       0       0        0.0%
BITBANK13          100      0       0      31        0.0%
BANK13             100      0       0      32        0.0%
BITBANK12          100      0       0      29        0.0%
BANK12             100      0       0      30        0.0%
BITBANK11          100      0       0      27        0.0%
BANK11             100      0       0      28        0.0%
BITBANK10          100      0       0      25        0.0%
BANK10             100      0       0      26        0.0%
BITBANK9           100      0       0      23        0.0%
BANK9              100      0       0      24        0.0%
BITBANK8           100      0       0      21        0.0%
BANK8              100      0       0      22        0.0%
BITBANK7           100      0       0      19        0.0%
BANK7              100      0       0      20        0.0%
BITBANK6           100      0       0      17        0.0%
BANK6              100      0       0      18        0.0%
BITBANK5           100      0       0      15        0.0%
BANK5              100      0       0      16        0.0%
BITBANK4           100      0       0      13        0.0%
BANK4              100      0       0      14        0.0%
BITBANK3           100      0       0      11        0.0%
BANK3              100      0       0      12        0.0%
BITBANK2           100      0       0       9        0.0%
BANK2              100      0       0      10        0.0%
BITBANK1           100      0       0       7        0.0%
BANK1              100      0       0       8        0.0%
BITBANK0            A0      0       0       4        0.0%
BANK0               A0      0       0       5        0.0%
BITCOMRAM           5E      0       0       0        0.0%
COMRAM              5E      F      2A       1       44.7%
BITBANK14           1F      0       0      33        0.0%
BANK14              1F      0       0      34        0.0%
BITSFR_2             0      0       0     200        0.0%
SFR_2                0      0       0     200        0.0%
BITSFR_1             0      0       0     200        0.0%
SFR_1                0      0       0     200        0.0%
BITSFR               0      0       0     200        0.0%
SFR                  0      0       0     200        0.0%
STACK                0      0       0       2        0.0%
NULL                 0      0       0       0        0.0%
ABS                  0      0      2A       6        0.0%
DATA                 0      0      2A       3        0.0%
CODE                 0      0       0       0        0.0%


Microchip Technology PIC18 Macro Assembler V2.30 build 20200825195618 
Symbol Table                                                                                   Wed Oct 14 13:53:32 2020

                                      l79 0538                                        u10 067A  
                                      u11 0676                                        u20 0692  
                                      u21 068E                                       l111 0978  
                                     l220 07E8                                       l405 0730  
                                     l510 0760                                       l159 0790  
                                     l343 083C                                       l192 0814  
                                     l248 07BC                                       l346 0980  
                                     l602 08CC                                       l355 0950  
                                     l532 0962                                       l541 095C  
                                     l349 097C                                       l605 0898  
                                     l365 092A                                       l462 090E  
                                     l278 087C                                       l630 0658  
                                     l535 0968                                       l544 0956  
                                     l720 0394                                       l448 091C  
                                     l529 08B4                                       l476 08F8  
                                     l726 03DC                                       l744 0696  
                                     l736 04B4                                       l746 0698  
                                     l770 020C                                       l739 05EA  
                                     l749 0598                                       l781 02E6  
                                     l765 0168                                       l782 0344  
                                     l774 024C                                       l791 0988  
                                     l775 028A                                       l599 0628  
                                     l785 0984                                       l769 01D6  
                                     l794 0974                                       l788 096E  
                                     u400 0122                                       u401 011E  
                                     u410 0144                                       u411 0140  
                                     u420 01A4                                       u421 01A0  
                                     u430 01B4                                       _PR2 000FBB  
                                     u431 01B0                                       u440 01E4  
                                     u520 035E                                       _PR4 000FB5  
                                     u441 01E0                                       u521 035A  
                                     u450 0224                                       u530 0374  
                                     u451 0220                                       u531 0370  
                                     u460 0234                                       u540 0394  
                                     u461 0230                                       u541 0390  
                                     u470 025A                                       u390 0102  
                                     u550 03C8                                       u471 0256  
                                     u391 00FE                                       u551 03C4  
                                     u480 02A2                                       u560 041C  
                                     u481 029E                                       u561 0418  
                                     u490 02BE                                       u570 0456  
                                     u491 02BA                                       u571 0452  
                                     u580 046E                                       u581 046A  
                                     u687 03A0                        _clc1risingEdgeFlag 0014  
                 __size_of_PMD_Initialize 001C                           _TMR2_Initialize 0860  
                         _PWM4_Initialize 08E4                         ??_CLC2_Initialize 0018  
                                     tosl 000FFD                                       wreg 000FE8  
                  Prepare_IR_NEC_Data@cmd 0018                                      l2100 053C  
                                    l2110 056C                                      l2102 053C  
                                    l2112 0570                                      l2104 0546  
                                    l2200 0202                                      l2120 00C2  
                                    l2114 057E                                      l2106 0554  
                                    l2210 023E                                      l2202 0214  
                                    l2130 00DC                                      l2122 00C6  
                                    l2116 0588                                      l2108 055E  
                                    l2220 0276                                      l2212 0242  
                                    l2204 0224                                      l2140 0102  
                                    l2132 00E0                                      l2124 00CE  
                                    l2300 0346                                      l1500 04D6  
                                    l2230 02AE                                      l2222 027E  
                                    l2214 0246                                      l2206 0234  
                                    l2150 0144                                      l2142 0106  
                                    l2134 00E4                                      l2126 00D4  
                                    l2310 0378                                      l2302 034A  
                                    l1510 0516                                      l1502 04D8  
                                    l2062 091E                                      l2070 0826  
                                    l1600 067A                                      l2240 02D2  
                                    l2232 02BE                                      l2224 0280  
                                    l2216 025A                                      l2208 0238  
                                    l2160 0188                                      l2152 015A  
                                    l2144 010A                                      l2136 00E8  
                                    l2128 00D8                                      l2320 03B0  
                                    l2312 037C                                      l2304 035E  
                                    l1520 0524                                      l1512 0518  
                                    l1504 04E0                                      l2072 0828  
                                    l2064 0910                                      l2080 071A  
                                    l1602 067C                                      l1610 059C  
                                    l2242 02D6                                      l2234 02C2  
                                    l2226 0292                                      l2218 0270  
                                    l2170 01B8                                      l2162 018C  
                                    l2154 016C                                      l2146 0112  
                                    l2138 00F0                                      l2330 03E4  
                                    l2322 03B8                                      l2314 0384  
                                    l2306 0364                                      l1530 07EA  
                                    l1522 0976                                      l1514 051E  
                                    l1506 0512                                      l2074 0838  
                                    l2066 0816                                      l2082 071C  
                                    l2092 0986                                      l1604 0682  
                                    l1612 05E8                                      l2244 02DA  
                                    l2236 02CA                                      l2228 02A2  
                                    l2180 01CA                                      l2172 01BE  
                                    l2164 0194                                      l2156 0176  
                                    l2148 0122                                      l2252 02F0  
                                    l2340 0446                                      l2332 0406  
                                    l2324 03C8                                      l2316 0396  
                                    l2308 0374                                      l1524 0762  
                                    l1532 07BE                                      l1516 0520  
                                    l1508 0514                                      l2068 0822  
                                    l2084 072C                                      l2076 0702  
                                    l1606 0692                                      l2246 02DE  
                                    l2238 02CE                                      l2190 01EE  
                                    l2182 01CC                                      l2174 01C2  
                                    l2166 01A4                                      l2158 0180  
                                    l2254 0342                                      l2430 0486  
                                    l2342 0456                                      l2334 041C  
                                    l2326 03D0                                      l2318 03AE  
                                    l1526 078C                                      l1534 0792  
                                    l1518 0522                                      l2078 0716  
                                    l2270 05EC                                      l2096 0970  
                                    l2088 0982                                      l1480 097A  
                                    l2432 0304                                      l2248 02E8  
                                    l2192 01F2                                      l2184 01D0  
                                    l2176 01C6                                      l2168 01B4  
                                    l2344 045E                                      l2336 0424  
                                    l2328 03D8                                      l1528 078E  
                                    l1536 0860                                      l2280 0600  
                                    l2272 05F0                                      l2098 096A  
                                    l1490 0958                                      l1482 094C  
                                    l2194 01F4                                      l2186 01E4  
                                    l2178 01C8                                      l2338 042C  
                                    l2354 0472                                      l1570 075C  
                                    l1538 0874                                      l2290 0614  
                                    l2282 0604                                      l2274 05F4  
                                    l1492 0952                                      l2196 01F6  
                                    l2188 01E8                                      l1572 075E  
                                    l1580 087E                                      l1564 08FA  
                                    l2292 0618                                      l2284 0608  
                                    l2276 05F8                                      l2380 062A  
                                    l1486 095E                                      l1478 097E  
                                    l2198 0200                                      l1574 089A  
                                    l1582 08B6                                      l1494 04B6  
                                    l1566 08E4                                      l2294 061C  
                                    l2286 060C                                      l2278 05FC  
                                    l2382 062E                                      l1488 0964  
                                    l1568 0732                                      l1576 08A6  
                                    l1496 04D2                                      l2296 0620  
                                    l2288 0610                                      l2384 0630  
                                    l1578 08B2                                      l1498 04D4  
                                    l2298 0624                                      l2386 0632  
                                    l1596 0666                                      l2388 0656  
                                    l1598 066A                                      _LATA 000F82  
                                    _LATB 000F83                                      _LATC 000F84  
                                    _LATD 000F85                                      _LATE 000F86  
                                    _T2PR 000FBB                                      _T4PR 000FB5  
                                    _PMD0 000EDC                                      _PMD1 000EDD  
                                    _PMD2 000EDE                                      _PMD3 000EDF  
                                    _PMD4 000EE0                                      _PMD5 000EE1  
                                    _TMR2 000FBA                                      _TMR4 000FB4  
                                    _WPUA 000F0B                                      _WPUB 000F13  
                                    _WPUC 000F1B                                      _WPUD 000F20  
                                    _WPUE 000F28                                      _main 062A  
                   ??_DSM_ModulationStart 0018                           _TMR0_StartTimer 097E  
                                    btemp 002B                          __end_of_CLC1_ISR 0860  
                              _ClearEvent 096A                          __end_of_CLC5_ISR 094A  
                                    start 00BE                         ??_CLC3_Initialize 0018  
              ??_TMR4_SetInterruptHandler 001B                              ___param_bank 000000  
                 __end_of_TMR0_Initialize 083E            ??_TMR0_DefaultInterruptHandler 0016  
                         __end_of_Reverse 05EC            __size_of_OSCILLATOR_Initialize 0018  
           __end_of_OSCILLATOR_Initialize 08CE              fp__TMR4_UserInterruptHandler 0000  
                 __end_of_ApplicationTask 04B6                                     ?_main 0016  
                                   _T2CON 000FBC                                     _T4CON 000FB6  
                                   _T2HLT 000FBD                                     _T4HLT 000FB7  
                                   _T2TMR 000FBA                                     _T2RST 000FBF  
                                   i2l120 00B2                                     i2l121 008E  
                                   i2l116 0038                                     _T4TMR 000FB4  
                                   i2l126 00B2                                     i2l119 006A  
                                   _T4RST 000FB9                                     _MDSRC 000F4E  
                                   i2l164 085E                           _TMR0_WriteTimer 094A  
                                   i2l513 0948                                     i2l362 0700  
                                   i2l451 0934                                     i2l445 06CC  
                                   i2l368 098C                                     i2l800 093E  
                                   i2l797 0990                                     _OSCEN 000ED7  
                                   _TMR0H 000FD3                                     _TMR0L 000FD2  
                                   _TRISA 000F87                                     _TRISB 000F88  
                                   _TRISC 000F89                                     _TRISD 000F8A  
                                   _TRISE 000F8B         __size_of_TMR0_SetInterruptHandler 000E  
                         _TMR4_Initialize 0702                 ?_TMR0_SetInterruptHandler 0018  
                       ??_CLC4_Initialize 0018                          __end_of_TMR0_ISR 0702  
                        __end_of_TMR4_ISR 06CE                                     _event 0009  
                 __end_of_PWM3_Initialize 0910                                     pclath 000FFA  
                             _ClearButton 0970                   __size_of_DSM_Initialize 001C  
                                   ttemp5 002C                                     ttemp6 002F  
                                   ttemp7 0033                                     status 000FD8  
                                   wtemp8 002C                          __end_of_GetEvent 0986  
                       ??_CLC5_Initialize 0018                           __initialization 08CE  
                            __end_of_main 0664                    SendIR_Frame@bitCounter 000B  
                 __end_of_PWM4_Initialize 08FA                   __end_of_TMR2_Initialize 087E  
             ?_INTERRUPT_InterruptManager 0016                                    ??_main 0025  
                      __size_of_GetButton 0004                             __activetblptr 000003  
                 __end_of_TMR0_StartTimer 0982                   PrepareNewCMD@newCommand 0019  
                           ?_SendIR_Frame 0019                                    _ANSELA 000F0C  
                                  _ANSELB 000F14                                    _ANSELC 000F1C  
                                  _ANSELD 000F21                                    _ANSELE 000F29  
                                  _T0CON0 000FD4                                    _T0CON1 000FD5  
                                  _MDCARH 000F50                                    _MDCARL 000F4F  
                                  _RA3PPS 000EE5                                    _ODCONA 000F0A  
                                  _ODCONB 000F12                                    _ODCONC 000F1A  
                                  _ODCOND 000F1F                                    _ODCONE 000F27  
                   __end_of_PrepareNewCMD 069A                                    i2l1550 098A  
                                  i2l2262 0936                                    i2l2086 092C  
                                  i2l2264 069A                                    i2l2360 0012  
                                  i2l2266 069E                                    i2l2370 0062  
                                  i2l2362 0022                                    i2l2268 06B2  
                                  i2l2372 0078                                    i2l2364 0030  
                                  i2l2374 0086                                    i2l2366 0046  
                                  i2l2376 009C                                    i2l2368 0054  
                                  i2l2378 00AA                                    i2l1790 0944  
                                  i2l1782 06CE                                    i2l1792 083E  
                                  i2l1784 06D2                                    i2l1794 0842  
                                  i2l1778 098E                                    i2l1786 06E6  
                                  i2l1796 0852                                    i2l1788 0940  
                                  i2l1798 085A                                    _INLVLA 000F08  
                                  _INLVLB 000F10                                    _INLVLC 000F18  
                                  _INLVLD 000F1D                                    _INLVLE 000F25  
                                  _OSCFRQ 000ED9                __end_of_DSM_ModulationStop 0958  
                             ?_ClearEvent 0016                                 ??_Reverse 0018  
                     ApplicationTask@data 0005                   __end_of_TMR0_WriteTimer 0952  
                        ?_TMR0_Initialize 0016                   __end_of_TMR4_Initialize 0732  
                                  clear_0 08D4                          ?_ApplicationTask 0016  
                     SendIR_Frame@IR_Data 0019      __end_of_TMR4_DefaultInterruptHandler 0936  
   __size_of_TMR4_DefaultInterruptHandler 000A              _TMR4_DefaultInterruptHandler 092C  
                          _PMD_Initialize 087E                                 ?_CLC1_ISR 0016  
                               ?_CLC5_ISR 0016                            ??_SendIR_Frame 001E  
TMR4_SetInterruptHandler@InterruptHandler 0018  TMR0_SetInterruptHandler@InterruptHandler 0018  
                         _CLC1_Initialize 0762             __size_of_INTERRUPT_Initialize 0004  
                        ?_PWM3_Initialize 0016                    SendIR_Frame@logicState 000C  
                       _SYSTEM_Initialize 05EC                                __accesstop 0060  
                 __end_of__initialization 08DA                        ?_SYSTEM_Initialize 0016  
                       __end_of_GetButton 098A                             ___rparam_used 000001  
                          __pcstackCOMRAM 0016                       ??_SYSTEM_Initialize 001B  
                               ?_TMR0_ISR 0016                           _CLC2_Initialize 07EA  
                               ?_TMR4_ISR 0016                          ?_PWM4_Initialize 0016  
                        ?_TMR2_Initialize 0016                    __end_of_PMD_Initialize 089A  
                      PrepareNewCMD@swNum 0018                       __size_of_ClearEvent 0006  
                              ??_CLC1_ISR 0016                                ??_CLC5_ISR 0016  
         fp__TMR4_DefaultInterruptHandler 0000             ?_TMR4_DefaultInterruptHandler 0016  
                               ?_GetEvent 0016        __size_of_TMR4_UserInterruptHandler 000A  
              ?_TMR4_UserInterruptHandler 0016                          ?_TMR0_StartTimer 0016  
               __end_of_SYSTEM_Initialize 062A                           _CLC3_Initialize 07BE  
                          _DSM_Initialize 089A              __size_of_Prepare_IR_NEC_Data 0060  
                              __pnvCOMRAM 0025                     _TMR4_InterruptHandler 0025  
        __end_of_TMR0_SetInterruptHandler 092C                   __size_of_TMR0_StopTimer 0004  
                              ??_TMR0_ISR 0016                                ??_TMR4_ISR 0016  
                         _CLC4_Initialize 0792                          ?_TMR0_WriteTimer 0016  
                                 _CLC1CON 000E27                                   _CLC2CON 000E31  
                                 _CLC3CON 000E3B                                   _CLC4CON 000E45  
                                 _CLC5CON 000E4F                                   _CLC1POL 000E28  
                                 _CLC2POL 000E32                                   _CLC3POL 000E3C  
                                 _CLC4POL 000E46                                   _CLC5POL 000E50  
                        ?_TMR4_Initialize 0016                           ?_PMD_Initialize 0016  
                 __end_of_CLC1_Initialize 0792                                   _T4INPPS 000EA7  
                ?_DSM_ManualModulationSet 0016                                   _OSCCON1 000ED3  
                                 _OSCCON3 000ED5                                   i2u14_40 06E6  
                                 i2u14_41 06E2                                   i2u16_40 0852  
                                 i2u15_48 06EC                                   i2u16_41 084E  
                                 i2u15_49 0700                                   i2u50_40 06B2  
                                 i2u50_41 06AE                                ??_GetEvent 0018  
                                 i2u51_48 06B8                                   i2u60_40 0030  
                                 i2u51_49 06CC                                   i2u60_41 002C  
                                 i2u61_40 0046                                   i2u61_41 0042  
                                 i2u62_40 0054                                   i2u62_41 0050  
                                 _OSCTUNE 000ED8                                   _PWM3DCH 000FA3  
                                 _PWM3DCL 000FA2                                   i2u63_40 0062  
                                 i2u63_41 005E                                   _PWM4DCH 000FA0  
                                 _PWM4DCL 000F9F                                   i2u64_40 0078  
                                 i2u64_41 0074                                   i2u65_40 0086  
                                 i2u65_41 0082                                   _PWM3CON 000FA4  
                                 i2u66_40 009C                                   i2u66_41 0098  
                                 _PWM4CON 000FA1                                   i2u67_40 00AA  
                                 i2u59_40 0022                                   i2u67_41 00A6  
                                 i2u59_41 001E                    __end_of_DSM_Initialize 08B6  
                                 _SLRCONA 000F09                                   _SLRCONB 000F11  
                                 _SLRCONC 000F19                                   _SLRCOND 000F1E  
                                 _SLRCONE 000F26               __end_of_DSM_ModulationStart 095E  
                         _CLC5_Initialize 0732         __end_of_TMR4_UserInterruptHandler 0940  
                            ?_ClearButton 0016                   __end_of_CLC2_Initialize 0816  
                      _timer0overflowFlag 0013                                 _CLCIN0PPS 000E1F  
                                 __Hparam 0000                                   __Lparam 0000  
                                 _Reverse 059A                      __end_of_SendIR_Frame 0346  
                    ApplicationTask@state 0011              fp__TMR0_UserInterruptHandler 0000  
                                 __pcinit 08CE                                   __ramtop 0F00  
                                 __ptext0 062A                                   __ptext1 05EC  
                                 __ptext2 0702                                   __ptext3 0910  
                                 __ptext4 0860                                   __ptext5 0816  
                                 __ptext6 091E                                   __ptext7 08E4  
                                 __ptext8 08FA                                   __ptext9 087E  
                 __end_of_CLC3_Initialize 07EA                     _OSCILLATOR_Initialize 08B6  
                               _T2CONbits 000FBC                                 _T4CONbits 000FB6  
                ??_PIN_MANAGER_Initialize 0018         __size_of_TMR4_SetInterruptHandler 000E  
                               _T2HLTbits 000FBD                 ?_TMR4_SetInterruptHandler 0018  
                               _T4HLTbits 000FB7                           ?_DSM_Initialize 0016  
              __size_of_SYSTEM_Initialize 003E                      end_of_initialization 08DA  
                               _T2RSTbits 000FBF            ??_TMR4_DefaultInterruptHandler 0016  
                               _T4RSTbits 000FB9                              ??_ClearEvent 0018  
                 __end_of_CLC4_Initialize 07BE                                   postinc0 000FEE  
                      _DSM_ModulationStop 0952           __end_of_DSM_ManualModulationSet 0964  
                _TMR0_SetInterruptHandler 091E                          ?_CLC1_Initialize 0016  
                 __end_of_CLC5_Initialize 0762                       ?_DSM_ModulationStop 0016  
                      __end_of_ClearEvent 0970                         __size_of_CLC1_ISR 0022  
                       __size_of_CLC5_ISR 000A              PrepareNewCMD@sw1PressedIndex 000D  
                ApplicationTask@rxAddress 000E                          ?_CLC2_Initialize 0016  
                    ??_DSM_ModulationStop 0018                       _clc1FirstRisingEdge 0015  
                ApplicationTask@retStatus 0024                            _TMR0_StopTimer 097A  
                               _GetButton 0986              __end_of_INTERRUPT_Initialize 097A  
                             _CLC1CONbits 000E27                               _CLC2CONbits 000E31  
                             _CLC3CONbits 000E3B                       _Prepare_IR_NEC_Data 053A  
                             _CLC4CONbits 000E45                         __size_of_TMR0_ISR 0034  
                             _CLC5CONbits 000E4F                         __size_of_TMR4_ISR 0034  
                  __size_of_PrepareNewCMD 0036                    ?_OSCILLATOR_Initialize 0016  
                             _CLC1POLbits 000E28                               _CLC2POLbits 000E32  
                             _CLC3POLbits 000E3C                          ?_CLC3_Initialize 0016  
                     start_initialization 08CE                  __size_of_TMR0_Initialize 0028  
         __size_of_PIN_MANAGER_Initialize 0084                      SendIR_Frame@retValue 0020  
                    SendIR_Frame@tempData 0001                  __size_of_ApplicationTask 0170  
             ??_TMR4_UserInterruptHandler 0016                         __size_of_GetEvent 0004  
                    ?_Prepare_IR_NEC_Data 0018                      __size_of_ClearButton 0006  
                        ?_CLC4_Initialize 0016                    __end_of_TMR0_StopTimer 097E  
                   __size_of_SendIR_Frame 0284             Prepare_IR_NEC_Data@devAddress 001D  
                __size_of_PWM3_Initialize 0016                                ?_GetButton 0016  
                        ??_PMD_Initialize 0018                               _CCPTMRSbits 000FAD  
      __size_of_DSM_ManualModulationClear 0006                ?_DSM_ManualModulationClear 0016  
                  ApplicationTask@command 000F                          ?_CLC5_Initialize 0016  
                             __pbssCOMRAM 0001        __size_of_TMR0_UserInterruptHandler 0004  
              ?_TMR0_UserInterruptHandler 0016                  __size_of_PWM4_Initialize 0016  
                __size_of_TMR2_Initialize 001E                     ??_Prepare_IR_NEC_Data 001C  
                            _SendIR_Frame 00C2                             _PrepareNewCMD 0664  
        __size_of_DSM_ManualModulationSet 0006                     _TMR0_InterruptHandler 0028  
             SendIR_Frame@numOfBitsToSend 001D                  __size_of_TMR0_StartTimer 0004  
                         ?_TMR0_StopTimer 0016                    _PIN_MANAGER_Initialize 04B6  
                                ?_Reverse 0016                                 __pintcode 0008  
               _TMR4_UserInterruptHandler 0936          __end_of_TMR4_SetInterruptHandler 091E  
            ??_INTERRUPT_InterruptManager 0016         __end_of_DSM_ManualModulationClear 096A  
                        ??_DSM_Initialize 0018                                  _CLC1GLS0 000E2D  
                                _CLC1GLS1 000E2E                                  _CLC1GLS2 000E2F  
                                _CLC1GLS3 000E30                                  _CLC2GLS0 000E37  
                                _CLC2GLS1 000E38                                  _CLC2GLS2 000E39  
                                _CLC2GLS3 000E3A                                  _CLC3GLS0 000E41  
                                _CLC3GLS1 000E42                                  _CLC3GLS2 000E43  
                                _CLC3GLS3 000E44                                  _CLC4GLS0 000E4B  
                                _CLC4GLS1 000E4C                                  _CLC4GLS2 000E4D  
                                _CLC4GLS3 000E4E                                  _CLC1SEL0 000E29  
                                _CLC1SEL1 000E2A                                  _CLC1SEL2 000E2B  
                                _CLC1SEL3 000E2C                                  _CLC5GLS0 000E55  
                                _CLC5GLS1 000E56                                  _CLC5GLS2 000E57  
                                _CLC5GLS3 000E58                                  _CLC2SEL0 000E33  
                                _CLC2SEL1 000E34                                  _CLC2SEL2 000E35  
                                _CLC2SEL3 000E36                                  _CLC3SEL0 000E3D  
                                _CLC3SEL1 000E3E                                  _CLC3SEL2 000E3F  
                                _CLC3SEL3 000E40                                  _CLC4SEL0 000E47  
                                _CLC4SEL1 000E48                                  _CLC4SEL2 000E49  
                                _CLC4SEL3 000E4A                                  _CLC5SEL0 000E51  
                                _CLC5SEL1 000E52                                  _CLC5SEL2 000E53  
                                _CLC5SEL3 000E54                                  _CLC1_ISR 083E  
                __size_of_TMR0_WriteTimer 0008                                  _CLC5_ISR 0940  
              Prepare_IR_NEC_Data@retData 001E                  __size_of_TMR4_Initialize 0030  
       __end_of_TMR0_UserInterruptHandler 0992                                  _T2CLKCON 000FBE  
                                _T4CLKCON 000FB8                      _INTERRUPT_Initialize 0976  
                          ?_PrepareNewCMD 0016                         ??_TMR0_Initialize 001B  
                                _LATEbits 000F86                         ??_ApplicationTask 0022  
            __size_of_DSM_ModulationStart 0006                                  _PIE0bits 000EBD  
                                _PIE4bits 000EC1                                  _PIE5bits 000EC2  
                                _PIE6bits 000EC3       __size_of_INTERRUPT_InterruptManager 00B6  
              ??_TMR0_SetInterruptHandler 001B                                  _PIR0bits 000EC5  
                                _PIR4bits 000EC9                                  _PIR5bits 000ECA  
                                _PIR6bits 000ECB                               ??_GetButton 0018  
                                _TMR0_ISR 06CE                                  _TMR4_ISR 069A  
                       ??_PWM3_Initialize 0018                                  _GetEvent 0982  
                   ?_INTERRUPT_Initialize 0016                        _clc5RisingEdgeFlag 0012  
                       ??_PWM4_Initialize 0018                         ??_TMR2_Initialize 0018  
                                __Hrparam 0000                                  __Lrparam 0000  
                        __size_of_Reverse 0052                   ??_OSCILLATOR_Initialize 0018  
                       ??_TMR0_StartTimer 0018                     ApplicationTask@button 0010  
                _TMR4_SetInterruptHandler 0910                                _T0CON0bits 000FD4  
                              _T0CON1bits 000FD5                                  __ptext10 04B6  
                                __ptext11 08B6                                  __ptext20 00C2  
                                __ptext12 0976                                  __ptext21 094A  
                                __ptext13 089A                                  __ptext30 0664  
                                __ptext22 097A                                  __ptext14 0732  
                                __ptext31 0982                                  __ptext23 097E  
                                __ptext15 0792                                  __ptext40 098A  
                                __ptext32 0986                                  __ptext24 0952  
                                __ptext16 07BE                                  __ptext41 098E  
                                __ptext33 096A                                  __ptext25 0958  
                                __ptext17 07EA                                  __ptext42 0940  
                                __ptext34 0970                                  __ptext26 095E  
                                __ptext18 0762                                  __ptext43 083E  
                                __ptext27 0964                                  __ptext19 0346  
                                __ptext44 0000                                  __ptext36 069A  
                                __ptext28 059A                                  __ptext37 092C  
                                __ptext29 053A                                  __ptext38 0936  
                                __ptext39 06CE                           ??_PrepareNewCMD 0018  
                __size_of_CLC1_Initialize 0030                   TMR0_WriteTimer@timerVal 0018  
                       ??_TMR0_WriteTimer 0018                   _DSM_ManualModulationSet 095E  
                       ??_TMR4_Initialize 001B                             __size_of_main 003A  
                              _MDCON0bits 000F4C                                _MDCON1bits 000F4D  
    __end_of_TMR0_DefaultInterruptHandler 098E     __size_of_TMR0_DefaultInterruptHandler 0004  
            _TMR0_DefaultInterruptHandler 098A               __size_of_DSM_ModulationStop 0006  
                                int$flags 002B        __end_of_INTERRUPT_InterruptManager 00BE  
              _INTERRUPT_InterruptManager 0008                  __size_of_CLC2_Initialize 002C  
             ??_DSM_ManualModulationClear 0018                                _INTCONbits 000FF2  
             ??_TMR0_UserInterruptHandler 0016                    ??_INTERRUPT_Initialize 0018  
                           ??_ClearButton 0018                                  intlevel2 0000  
                __size_of_CLC3_Initialize 002C                          ??_TMR0_StopTimer 0018  
                 ?_PIN_MANAGER_Initialize 0016           fp__TMR0_DefaultInterruptHandler 0000  
           ?_TMR0_DefaultInterruptHandler 0016                  __size_of_CLC4_Initialize 002C  
                     _DSM_ModulationStart 0958                           _TMR0_Initialize 0816  
             __end_of_Prepare_IR_NEC_Data 059A                           _ApplicationTask 0346  
               ??_DSM_ManualModulationSet 0018            __end_of_PIN_MANAGER_Initialize 053A  
               _DSM_ManualModulationClear 0964                  __size_of_CLC5_Initialize 0030  
                          Reverse@byteVar 001A                      ?_DSM_ModulationStart 0016  
                         _PWM3_Initialize 08FA                         ??_CLC1_Initialize 0018  
                     __end_of_ClearButton 0976                 _TMR0_UserInterruptHandler 098E  
